(lp0
(lp1
(I725
I724
tp2
a(I724
I722
tp3
a(I722
I725
tp4
aa(lp5
(I353
I360
tp6
a(I360
I351
tp7
a(I351
I353
tp8
aa(lp9
(I484
I498
tp10
a(I498
I482
tp11
a(I482
I484
tp12
aa(lp13
(I464
I467
tp14
a(I467
I472
tp15
a(I472
I464
tp16
aa(lp17
(I218
I256
tp18
a(I256
I217
tp19
a(I217
I218
tp20
aa(lp21
(I638
I659
tp22
a(I659
I635
tp23
a(I635
I638
tp24
aa(lp25
(I305
I307
tp26
a(I307
I302
tp27
a(I302
I305
tp28
aa(lp29
(I423
I759
tp30
a(I759
I390
tp31
a(I390
I423
tp32
aa(lp33
(I717
I719
tp34
a(I719
I716
tp35
a(I716
I717
tp36
aa(lp37
(I157
I179
tp38
a(I179
I787
tp39
a(I787
I157
tp40
aa(lp41
(I643
I644
tp42
a(I644
I686
tp43
a(I686
I643
tp44
aa(lp45
(I436
I454
tp46
a(I454
I433
tp47
a(I433
I436
tp48
aa(lp49
(I720
I711
tp50
a(I711
I708
tp51
a(I708
I720
tp52
aa(lp53
(I605
I608
tp54
a(I608
I620
tp55
a(I620
I605
tp56
aa(lp57
(I292
I276
tp58
a(I276
I281
tp59
a(I281
I292
tp60
aa(lp61
(I42
I53
tp62
a(I53
I41
tp63
a(I41
I42
tp64
aa(lp65
(I648
I664
tp66
a(I664
I647
tp67
a(I647
I648
tp68
aa(lp69
(I683
I651
tp70
a(I651
I654
tp71
a(I654
I683
tp72
aa(lp73
(I632
I633
tp74
a(I633
I640
tp75
a(I640
I632
tp76
aa(lp77
(I257
I101
tp78
a(I101
I113
tp79
a(I113
I257
tp80
aa(lp81
(I503
I504
tp82
a(I504
I513
tp83
a(I513
I503
tp84
aa(lp85
(I757
I595
tp86
a(I595
I599
tp87
a(I599
I757
tp88
aa(lp89
(I158
I161
tp90
a(I161
I160
tp91
a(I160
I158
tp92
aa(lp93
(I116
I72
tp94
a(I72
I73
tp95
a(I73
I116
tp96
aa(lp97
(I367
I284
tp98
a(I284
I285
tp99
a(I285
I367
tp100
aa(lp101
(I569
I571
tp102
a(I571
I577
tp103
a(I577
I569
tp104
aa(lp105
(I28
I32
tp106
a(I32
I27
tp107
a(I27
I28
tp108
aa(lp109
(I552
I566
tp110
a(I566
I551
tp111
a(I551
I552
tp112
aa(lp113
(I238
I239
tp114
a(I239
I236
tp115
a(I236
I238
tp116
aa(lp117
(I320
I314
tp118
a(I314
I315
tp119
a(I315
I320
tp120
aa(lp121
(I170
I185
tp122
a(I185
I165
tp123
a(I165
I170
tp124
aa(lp125
(I740
I738
tp126
a(I738
I735
tp127
a(I735
I740
tp128
aa(lp129
(I0
I112
tp130
a(I112
I1
tp131
a(I1
I0
tp132
aa(lp133
(I78
I297
tp134
a(I297
I77
tp135
a(I77
I78
tp136
aa(lp137
(I382
I430
tp138
a(I430
I381
tp139
a(I381
I382
tp140
aa(lp141
(I174
I164
tp142
a(I164
I166
tp143
a(I166
I174
tp144
aa(lp145
(I653
I674
tp146
a(I674
I652
tp147
a(I652
I653
tp148
aa(lp149
(I156
I128
tp150
a(I128
I129
tp151
a(I129
I156
tp152
aa(lp153
(I603
I604
tp154
a(I604
I749
tp155
a(I749
I603
tp156
aa(lp157
(I202
I203
tp158
a(I203
I204
tp159
a(I204
I202
tp160
aa(lp161
(I539
I585
tp162
a(I585
I538
tp163
a(I538
I539
tp164
aa(lp165
(I33
I30
tp166
a(I30
I29
tp167
a(I29
I33
tp168
aa(lp169
(I16
I760
tp170
a(I760
I15
tp171
a(I15
I16
tp172
aa(lp173
(I721
I710
tp174
a(I710
I709
tp175
a(I709
I721
tp176
aa(lp177
(I123
I125
tp178
a(I125
I150
tp179
a(I150
I123
tp180
aa(lp181
(I508
I509
tp182
a(I509
I514
tp183
a(I514
I508
tp184
aa(lp185
(I425
I426
tp186
a(I426
I451
tp187
a(I451
I425
tp188
aa(lp189
(I22
I25
tp190
a(I25
I31
tp191
a(I31
I22
tp192
aa(lp193
(I572
I574
tp194
a(I574
I580
tp195
a(I580
I572
tp196
aa(lp197
(I267
I264
tp198
a(I264
I266
tp199
a(I266
I267
tp200
aa(lp201
(I626
I628
tp202
a(I628
I624
tp203
a(I624
I626
tp204
aa(lp205
(I496
I519
tp206
a(I519
I493
tp207
a(I493
I496
tp208
aa(lp209
(I732
I726
tp210
a(I726
I728
tp211
a(I728
I732
tp212
aa(lp213
(I412
I557
tp214
a(I557
I379
tp215
a(I379
I412
tp216
aa(lp217
(I586
I540
tp218
a(I540
I541
tp219
a(I541
I586
tp220
aa(lp221
(I80
I81
tp222
a(I81
I308
tp223
a(I308
I80
tp224
aa(lp225
(I420
I395
tp226
a(I395
I396
tp227
a(I396
I420
tp228
aa(lp229
(I455
I452
tp230
a(I452
I453
tp231
a(I453
I455
tp232
aa(lp233
(I458
I460
tp234
a(I460
I507
tp235
a(I507
I458
tp236
aa(lp237
(I584
I582
tp238
a(I582
I583
tp239
a(I583
I584
tp240
aa(lp241
(I2
I68
tp242
a(I68
I667
tp243
a(I667
I2
tp244
aa(lp245
(I694
I693
tp246
a(I693
I692
tp247
a(I692
I694
tp248
aa(lp249
(I13
I35
tp250
a(I35
I768
tp251
a(I768
I13
tp252
aa(lp253
(I487
I491
tp254
a(I491
I499
tp255
a(I499
I487
tp256
aa(lp257
(I752
I753
tp258
a(I753
I758
tp259
a(I758
I752
tp260
aa(lp261
(I746
I741
tp262
a(I741
I742
tp263
a(I742
I746
tp264
aa(lp265
(I793
I790
tp266
a(I790
I792
tp267
a(I792
I793
tp268
aa(lp269
(I676
I669
tp270
a(I669
I670
tp271
a(I670
I676
tp272
aa(lp273
(I275
I231
tp274
a(I231
I232
tp275
a(I232
I275
tp276
aa(lp277
(I656
I668
tp278
a(I668
I780
tp279
a(I780
I656
tp280
aa(lp281
(I779
I782
tp282
a(I782
I778
tp283
a(I778
I779
tp284
aa(lp285
(I244
I241
tp286
a(I241
I242
tp287
a(I242
I244
tp288
aa(lp289
(I437
I439
tp290
a(I439
I450
tp291
a(I450
I437
tp292
aa(lp293
(I272
I273
tp294
a(I273
I629
tp295
a(I629
I272
tp296
aa(lp297
(I5
I4
tp298
a(I4
I3
tp299
a(I3
I5
tp300
aa(lp301
(I774
I24
tp302
a(I24
I224
tp303
a(I224
I774
tp304
aa(lp305
(I766
I771
tp306
a(I771
I764
tp307
a(I764
I766
tp308
aa(lp309
(I107
I110
tp310
a(I110
I136
tp311
a(I136
I107
tp312
aa(lp313
(I154
I144
tp314
a(I144
I148
tp315
a(I148
I154
tp316
aa(lp317
(I375
I389
tp318
a(I389
I373
tp319
a(I373
I375
tp320
aa(lp321
(I618
I627
tp322
a(I627
I611
tp323
a(I611
I618
tp324
aa(lp325
(I404
I394
tp326
a(I394
I400
tp327
a(I400
I404
tp328
aa(lp329
(I356
I361
tp330
a(I361
I354
tp331
a(I354
I356
tp332
aa(lp333
(I474
I475
tp334
a(I475
I486
tp335
a(I486
I474
tp336
aa(lp337
(I328
I456
tp338
a(I456
I326
tp339
a(I326
I328
tp340
aa(lp341
(I590
I787
tp342
a(I787
I179
tp343
a(I179
I168
tp344
a(I168
I590
tp345
aa(lp346
(I399
I403
tp347
a(I403
I404
tp348
a(I404
I400
tp349
a(I400
I399
tp350
aa(lp351
(I754
I755
tp352
a(I755
I598
tp353
a(I598
I597
tp354
a(I597
I754
tp355
aa(lp356
(I619
I620
tp357
a(I620
I608
tp358
a(I608
I607
tp359
a(I607
I619
tp360
aa(lp361
(I678
I677
tp362
a(I677
I680
tp363
a(I680
I681
tp364
a(I681
I678
tp365
aa(lp366
(I111
I70
tp367
a(I70
I69
tp368
a(I69
I92
tp369
a(I92
I111
tp370
aa(lp371
(I421
I378
tp372
a(I378
I381
tp373
a(I381
I430
tp374
a(I430
I421
tp375
aa(lp376
(I338
I347
tp377
a(I347
I340
tp378
a(I340
I336
tp379
a(I336
I338
tp380
aa(lp381
(I592
I594
tp382
a(I594
I749
tp383
a(I749
I604
tp384
a(I604
I592
tp385
aa(lp386
(I26
I23
tp387
a(I23
I27
tp388
a(I27
I32
tp389
a(I32
I26
tp390
aa(lp391
(I746
I742
tp392
a(I742
I736
tp393
a(I736
I737
tp394
a(I737
I746
tp395
aa(lp396
(I766
I765
tp397
a(I765
I770
tp398
a(I770
I771
tp399
a(I771
I766
tp400
aa(lp401
(I556
I46
tp402
a(I46
I334
tp403
a(I334
I223
tp404
a(I223
I556
tp405
aa(lp406
(I548
I547
tp407
a(I547
I575
tp408
a(I575
I576
tp409
a(I576
I548
tp410
aa(lp411
(I715
I713
tp412
a(I713
I714
tp413
a(I714
I718
tp414
a(I718
I715
tp415
aa(lp416
(I241
I244
tp417
a(I244
I243
tp418
a(I243
I240
tp419
a(I240
I241
tp420
aa(lp421
(I712
I756
tp422
a(I756
I723
tp423
a(I723
I701
tp424
a(I701
I712
tp425
aa(lp426
(I120
I127
tp427
a(I127
I155
tp428
a(I155
I121
tp429
a(I121
I120
tp430
aa(lp431
(I391
I393
tp432
a(I393
I420
tp433
a(I420
I396
tp434
a(I396
I391
tp435
aa(lp436
(I230
I196
tp437
a(I196
I200
tp438
a(I200
I259
tp439
a(I259
I230
tp440
aa(lp441
(I757
I599
tp442
a(I599
I598
tp443
a(I598
I755
tp444
a(I755
I757
tp445
aa(lp446
(I349
I359
tp447
a(I359
I350
tp448
a(I350
I348
tp449
a(I348
I349
tp450
aa(lp451
(I323
I772
tp452
a(I772
I773
tp453
a(I773
I335
tp454
a(I335
I323
tp455
aa(lp456
(I102
I91
tp457
a(I91
I89
tp458
a(I89
I97
tp459
a(I97
I102
tp460
aa(lp461
(I789
I788
tp462
a(I788
I512
tp463
a(I512
I523
tp464
a(I523
I789
tp465
aa(lp466
(I684
I641
tp467
a(I641
I642
tp468
a(I642
I685
tp469
a(I685
I684
tp470
aa(lp471
(I229
I231
tp472
a(I231
I275
tp473
a(I275
I253
tp474
a(I253
I229
tp475
aa(lp476
(I153
I154
tp477
a(I154
I148
tp478
a(I148
I147
tp479
a(I147
I153
tp480
aa(lp481
(I503
I513
tp482
a(I513
I477
tp483
a(I477
I478
tp484
a(I478
I503
tp485
aa(lp486
(I756
I712
tp487
a(I712
I612
tp488
a(I612
I634
tp489
a(I634
I756
tp490
aa(lp491
(I54
I56
tp492
a(I56
I58
tp493
a(I58
I55
tp494
a(I55
I54
tp495
aa(lp496
(I386
I387
tp497
a(I387
I366
tp498
a(I366
I365
tp499
a(I365
I386
tp500
aa(lp501
(I776
I775
tp502
a(I775
I783
tp503
a(I783
I784
tp504
a(I784
I776
tp505
aa(lp506
(I135
I124
tp507
a(I124
I346
tp508
a(I346
I357
tp509
a(I357
I135
tp510
aa(lp511
(I277
I288
tp512
a(I288
I263
tp513
a(I263
I262
tp514
a(I262
I277
tp515
aa(lp516
(I281
I280
tp517
a(I280
I291
tp518
a(I291
I292
tp519
a(I292
I281
tp520
aa(lp521
(I48
I61
tp522
a(I61
I59
tp523
a(I59
I47
tp524
a(I47
I48
tp525
aa(lp526
(I406
I428
tp527
a(I428
I530
tp528
a(I530
I407
tp529
a(I407
I406
tp530
aa(lp531
(I707
I706
tp532
a(I706
I714
tp533
a(I714
I713
tp534
a(I713
I707
tp535
aa(lp536
(I484
I483
tp537
a(I483
I488
tp538
a(I488
I498
tp539
a(I498
I484
tp540
aa(lp541
(I220
I219
tp542
a(I219
I248
tp543
a(I248
I250
tp544
a(I250
I220
tp545
aa(lp546
(I485
I473
tp547
a(I473
I474
tp548
a(I474
I486
tp549
a(I486
I485
tp550
aa(lp551
(I341
I333
tp552
a(I333
I332
tp553
a(I332
I339
tp554
a(I339
I341
tp555
aa(lp556
(I211
I210
tp557
a(I210
I225
tp558
a(I225
I226
tp559
a(I226
I211
tp560
aa(lp561
(I522
I516
tp562
a(I516
I518
tp563
a(I518
I524
tp564
a(I524
I522
tp565
aa(lp566
(I250
I251
tp567
a(I251
I221
tp568
a(I221
I220
tp569
a(I220
I250
tp570
aa(lp571
(I704
I716
tp572
a(I716
I719
tp573
a(I719
I705
tp574
a(I705
I704
tp575
aa(lp576
(I497
I529
tp577
a(I529
I528
tp578
a(I528
I494
tp579
a(I494
I497
tp580
aa(lp581
(I442
I441
tp582
a(I441
I327
tp583
a(I327
I329
tp584
a(I329
I442
tp585
aa(lp586
(I71
I72
tp587
a(I72
I116
tp588
a(I116
I115
tp589
a(I115
I71
tp590
aa(lp591
(I318
I311
tp592
a(I311
I313
tp593
a(I313
I319
tp594
a(I319
I318
tp595
aa(lp596
(I313
I314
tp597
a(I314
I320
tp598
a(I320
I319
tp599
a(I319
I313
tp600
aa(lp601
(I268
I279
tp602
a(I279
I300
tp603
a(I300
I299
tp604
a(I299
I268
tp605
aa(lp606
(I63
I62
tp607
a(I62
I65
tp608
a(I65
I64
tp609
a(I64
I63
tp610
aa(lp611
(I643
I686
tp612
a(I686
I685
tp613
a(I685
I642
tp614
a(I642
I643
tp615
aa(lp616
(I136
I110
tp617
a(I110
I109
tp618
a(I109
I134
tp619
a(I134
I136
tp620
aa(lp621
(I521
I462
tp622
a(I462
I461
tp623
a(I461
I511
tp624
a(I511
I521
tp625
aa(lp626
(I132
I163
tp627
a(I163
I162
tp628
a(I162
I131
tp629
a(I131
I132
tp630
aa(lp631
(I384
I371
tp632
a(I371
I370
tp633
a(I370
I383
tp634
a(I383
I384
tp635
aa(lp636
(I40
I41
tp637
a(I41
I53
tp638
a(I53
I52
tp639
a(I52
I40
tp640
aa(lp641
(I199
I234
tp642
a(I234
I207
tp643
a(I207
I195
tp644
a(I195
I199
tp645
aa(lp646
(I468
I601
tp647
a(I601
I690
tp648
a(I690
I479
tp649
a(I479
I468
tp650
aa(lp651
(I550
I551
tp652
a(I551
I566
tp653
a(I566
I565
tp654
a(I565
I550
tp655
aa(lp656
(I389
I375
tp657
a(I375
I374
tp658
a(I374
I388
tp659
a(I388
I389
tp660
aa(lp661
(I243
I213
tp662
a(I213
I214
tp663
a(I214
I240
tp664
a(I240
I243
tp665
aa(lp666
(I245
I249
tp667
a(I249
I254
tp668
a(I254
I247
tp669
a(I247
I245
tp670
aa(lp671
(I290
I335
tp672
a(I335
I773
tp673
a(I773
I763
tp674
a(I763
I290
tp675
aa(lp676
(I679
I786
tp677
a(I786
I767
tp678
a(I767
I623
tp679
a(I623
I679
tp680
aa(lp681
(I159
I130
tp682
a(I130
I131
tp683
a(I131
I162
tp684
a(I162
I159
tp685
aa(lp686
(I184
I183
tp687
a(I183
I177
tp688
a(I177
I178
tp689
a(I178
I184
tp690
aa(lp691
(I173
I177
tp692
a(I177
I183
tp693
a(I183
I176
tp694
a(I176
I173
tp695
aa(lp696
(I500
I505
tp697
a(I505
I514
tp698
a(I514
I509
tp699
a(I509
I500
tp700
aa(lp701
(I418
I419
tp702
a(I419
I398
tp703
a(I398
I397
tp704
a(I397
I418
tp705
aa(lp706
(I127
I128
tp707
a(I128
I156
tp708
a(I156
I155
tp709
a(I155
I127
tp710
aa(lp711
(I606
I609
tp712
a(I609
I415
tp713
a(I415
I414
tp714
a(I414
I606
tp715
aa(lp716
(I215
I217
tp717
a(I217
I256
tp718
a(I256
I255
tp719
a(I255
I215
tp720
aa(lp721
(I758
I747
tp722
a(I747
I748
tp723
a(I748
I752
tp724
a(I752
I758
tp725
aa(lp726
(I222
I233
tp727
a(I233
I198
tp728
a(I198
I197
tp729
a(I197
I222
tp730
aa(lp731
(I57
I68
tp732
a(I68
I2
tp733
a(I2
I785
tp734
a(I785
I57
tp735
aa(lp736
(I364
I385
tp737
a(I385
I386
tp738
a(I386
I365
tp739
a(I365
I364
tp740
aa(lp741
(I466
I471
tp742
a(I471
I472
tp743
a(I472
I467
tp744
a(I467
I466
tp745
aa(lp746
(I744
I740
tp747
a(I740
I735
tp748
a(I735
I739
tp749
a(I739
I744
tp750
aa(lp751
(I641
I684
tp752
a(I684
I658
tp753
a(I658
I639
tp754
a(I639
I641
tp755
aa(lp756
(I147
I145
tp757
a(I145
I152
tp758
a(I152
I153
tp759
a(I153
I147
tp760
aa(lp761
(I44
I40
tp762
a(I40
I52
tp763
a(I52
I51
tp764
a(I51
I44
tp765
aa(lp766
(I576
I563
tp767
a(I563
I535
tp768
a(I535
I536
tp769
a(I536
I548
tp770
a(I548
I576
tp771
aa(lp772
(I530
I531
tp773
a(I531
I532
tp774
a(I532
I408
tp775
a(I408
I407
tp776
a(I407
I530
tp777
aa(lp778
(I145
I122
tp779
a(I122
I126
tp780
a(I126
I151
tp781
a(I151
I152
tp782
a(I152
I145
tp783
aa(lp784
(I36
I34
tp785
a(I34
I10
tp786
a(I10
I11
tp787
a(I11
I37
tp788
a(I37
I36
tp789
aa(lp790
(I239
I208
tp791
a(I208
I207
tp792
a(I207
I234
tp793
a(I234
I236
tp794
a(I236
I239
tp795
aa(lp796
(I299
I298
tp797
a(I298
I401
tp798
a(I401
I235
tp799
a(I235
I268
tp800
a(I268
I299
tp801
aa(lp802
(I793
I794
tp803
a(I794
I212
tp804
a(I212
I201
tp805
a(I201
I790
tp806
a(I790
I793
tp807
aa(lp808
(I414
I413
tp809
a(I413
I619
tp810
a(I619
I607
tp811
a(I607
I606
tp812
a(I606
I414
tp813
aa(lp814
(I124
I101
tp815
a(I101
I257
tp816
a(I257
I246
tp817
a(I246
I346
tp818
a(I346
I124
tp819
aa(lp820
(I383
I370
tp821
a(I370
I369
tp822
a(I369
I286
tp823
a(I286
I283
tp824
a(I283
I383
tp825
aa(lp826
(I702
I707
tp827
a(I707
I713
tp828
a(I713
I715
tp829
a(I715
I703
tp830
a(I703
I702
tp831
aa(lp832
(I76
I87
tp833
a(I87
I351
tp834
a(I351
I360
tp835
a(I360
I94
tp836
a(I94
I76
tp837
aa(lp838
(I334
I445
tp839
a(I445
I112
tp840
a(I112
I0
tp841
a(I0
I223
tp842
a(I223
I334
tp843
aa(lp844
(I158
I160
tp845
a(I160
I142
tp846
a(I142
I130
tp847
a(I130
I159
tp848
a(I159
I158
tp849
aa(lp850
(I520
I519
tp851
a(I519
I496
tp852
a(I496
I495
tp853
a(I495
I526
tp854
a(I526
I520
tp855
aa(lp856
(I561
I410
tp857
a(I410
I409
tp858
a(I409
I542
tp859
a(I542
I560
tp860
a(I560
I561
tp861
aa(lp862
(I59
I61
tp863
a(I61
I62
tp864
a(I62
I63
tp865
a(I63
I60
tp866
a(I60
I59
tp867
aa(lp868
(I98
I137
tp869
a(I137
I134
tp870
a(I134
I109
tp871
a(I109
I96
tp872
a(I96
I98
tp873
aa(lp874
(I105
I117
tp875
a(I117
I75
tp876
a(I75
I74
tp877
a(I74
I104
tp878
a(I104
I105
tp879
aa(lp880
(I546
I544
tp881
a(I544
I555
tp882
a(I555
I578
tp883
a(I578
I581
tp884
a(I581
I546
tp885
aa(lp886
(I185
I170
tp887
a(I170
I169
tp888
a(I169
I260
tp889
a(I260
I186
tp890
a(I186
I185
tp891
aa(lp892
(I770
I765
tp893
a(I765
I761
tp894
a(I761
I762
tp895
a(I762
I769
tp896
a(I769
I770
tp897
aa(lp898
(I636
I637
tp899
a(I637
I657
tp900
a(I657
I666
tp901
a(I666
I662
tp902
a(I662
I636
tp903
aa(lp904
(I452
I455
tp905
a(I455
I454
tp906
a(I454
I436
tp907
a(I436
I435
tp908
a(I435
I452
tp909
aa(lp910
(I34
I21
tp911
a(I21
I17
tp912
a(I17
I9
tp913
a(I9
I10
tp914
a(I10
I34
tp915
aa(lp916
(I794
I793
tp917
a(I793
I792
tp918
a(I792
I791
tp919
a(I791
I795
tp920
a(I795
I794
tp921
aa(lp922
(I399
I398
tp923
a(I398
I419
tp924
a(I419
I402
tp925
a(I402
I403
tp926
a(I403
I399
tp927
aa(lp928
(I559
I560
tp929
a(I560
I542
tp930
a(I542
I540
tp931
a(I540
I586
tp932
a(I586
I559
tp933
aa(lp934
(I18
I17
tp935
a(I17
I21
tp936
a(I21
I19
tp937
a(I19
I20
tp938
a(I20
I18
tp939
aa(lp940
(I8
I7
tp941
a(I7
I9
tp942
a(I9
I17
tp943
a(I17
I18
tp944
a(I18
I8
tp945
aa(lp946
(I343
I348
tp947
a(I348
I350
tp948
a(I350
I86
tp949
a(I86
I85
tp950
a(I85
I343
tp951
aa(lp952
(I525
I517
tp953
a(I517
I520
tp954
a(I520
I526
tp955
a(I526
I527
tp956
a(I527
I525
tp957
aa(lp958
(I348
I343
tp959
a(I343
I342
tp960
a(I342
I344
tp961
a(I344
I349
tp962
a(I349
I348
tp963
aa(lp964
(I784
I777
tp965
a(I777
I734
tp966
a(I734
I745
tp967
a(I745
I776
tp968
a(I776
I784
tp969
aa(lp970
(I683
I654
tp971
a(I654
I652
tp972
a(I652
I674
tp973
a(I674
I673
tp974
a(I673
I683
tp975
aa(lp976
(I450
I439
tp977
a(I439
I422
tp978
a(I422
I425
tp979
a(I425
I451
tp980
a(I451
I450
tp981
aa(lp982
(I678
I681
tp983
a(I681
I682
tp984
a(I682
I672
tp985
a(I672
I671
tp986
a(I671
I678
tp987
aa(lp988
(I527
I526
tp989
a(I526
I495
tp990
a(I495
I494
tp991
a(I494
I528
tp992
a(I528
I527
tp993
aa(lp994
(I773
I772
tp995
a(I772
I769
tp996
a(I769
I762
tp997
a(I762
I763
tp998
a(I763
I773
tp999
aa(lp1000
(I363
I373
tp1001
a(I373
I389
tp1002
a(I389
I388
tp1003
a(I388
I362
tp1004
a(I362
I363
tp1005
aa(lp1006
(I580
I574
tp1007
a(I574
I573
tp1008
a(I573
I581
tp1009
a(I581
I578
tp1010
a(I578
I580
tp1011
aa(lp1012
(I327
I441
tp1013
a(I441
I440
tp1014
a(I440
I456
tp1015
a(I456
I328
tp1016
a(I328
I327
tp1017
aa(lp1018
(I151
I126
tp1019
a(I126
I123
tp1020
a(I123
I150
tp1021
a(I150
I149
tp1022
a(I149
I151
tp1023
aa(lp1024
(I601
I468
tp1025
a(I468
I446
tp1026
a(I446
I501
tp1027
a(I501
I568
tp1028
a(I568
I601
tp1029
aa(lp1030
(I733
I738
tp1031
a(I738
I740
tp1032
a(I740
I744
tp1033
a(I744
I730
tp1034
a(I730
I733
tp1035
aa(lp1036
(I567
I549
tp1037
a(I549
I558
tp1038
a(I558
I583
tp1039
a(I583
I582
tp1040
a(I582
I567
tp1041
aa(lp1042
(I293
I269
tp1043
a(I269
I267
tp1044
a(I267
I266
tp1045
a(I266
I265
tp1046
a(I265
I293
tp1047
aa(lp1048
(I463
I462
tp1049
a(I462
I521
tp1050
a(I521
I522
tp1051
a(I522
I524
tp1052
a(I524
I463
tp1053
aa(lp1054
(I573
I575
tp1055
a(I575
I547
tp1056
a(I547
I546
tp1057
a(I546
I581
tp1058
a(I581
I573
tp1059
aa(lp1060
(I95
I94
tp1061
a(I94
I360
tp1062
a(I360
I353
tp1063
a(I353
I352
tp1064
a(I352
I95
tp1065
aa(lp1066
(I506
I507
tp1067
a(I507
I460
tp1068
a(I460
I459
tp1069
a(I459
I480
tp1070
a(I480
I506
tp1071
aa(lp1072
(I338
I336
tp1073
a(I336
I331
tp1074
a(I331
I330
tp1075
a(I330
I337
tp1076
a(I337
I338
tp1077
aa(lp1078
(I655
I682
tp1079
a(I682
I681
tp1080
a(I681
I680
tp1081
a(I680
I650
tp1082
a(I650
I655
tp1083
aa(lp1084
(I570
I554
tp1085
a(I554
I553
tp1086
a(I553
I577
tp1087
a(I577
I571
tp1088
a(I571
I570
tp1089
aa(lp1090
(I340
I339
tp1091
a(I339
I332
tp1092
a(I332
I331
tp1093
a(I331
I336
tp1094
a(I336
I340
tp1095
aa(lp1096
(I677
I675
tp1097
a(I675
I649
tp1098
a(I649
I650
tp1099
a(I650
I680
tp1100
a(I680
I677
tp1101
aa(lp1102
(I767
I786
tp1103
a(I786
I781
tp1104
a(I781
I783
tp1105
a(I783
I775
tp1106
a(I775
I767
tp1107
aa(lp1108
(I692
I693
tp1109
a(I693
I631
tp1110
a(I631
I630
tp1111
a(I630
I687
tp1112
a(I687
I691
tp1113
a(I691
I692
tp1114
aa(lp1115
(I202
I204
tp1116
a(I204
I205
tp1117
a(I205
I139
tp1118
a(I139
I138
tp1119
a(I138
I188
tp1120
a(I188
I202
tp1121
aa(lp1122
(I516
I522
tp1123
a(I522
I521
tp1124
a(I521
I511
tp1125
a(I511
I510
tp1126
a(I510
I515
tp1127
a(I515
I516
tp1128
aa(lp1129
(I411
I591
tp1130
a(I591
I605
tp1131
a(I605
I620
tp1132
a(I620
I619
tp1133
a(I619
I413
tp1134
a(I413
I411
tp1135
aa(lp1136
(I418
I397
tp1137
a(I397
I395
tp1138
a(I395
I420
tp1139
a(I420
I393
tp1140
a(I393
I392
tp1141
a(I392
I418
tp1142
aa(lp1143
(I455
I453
tp1144
a(I453
I449
tp1145
a(I449
I431
tp1146
a(I431
I433
tp1147
a(I433
I454
tp1148
a(I454
I455
tp1149
aa(lp1150
(I208
I239
tp1151
a(I239
I238
tp1152
a(I238
I237
tp1153
a(I237
I209
tp1154
a(I209
I206
tp1155
a(I206
I208
tp1156
aa(lp1157
(I325
I326
tp1158
a(I326
I456
tp1159
a(I456
I440
tp1160
a(I440
I337
tp1161
a(I337
I330
tp1162
a(I330
I325
tp1163
aa(lp1164
(I23
I26
tp1165
a(I26
I20
tp1166
a(I20
I19
tp1167
a(I19
I25
tp1168
a(I25
I22
tp1169
a(I22
I23
tp1170
aa(lp1171
(I99
I187
tp1172
a(I187
I188
tp1173
a(I188
I138
tp1174
a(I138
I137
tp1175
a(I137
I98
tp1176
a(I98
I99
tp1177
aa(lp1178
(I84
I333
tp1179
a(I333
I341
tp1180
a(I341
I342
tp1181
a(I342
I343
tp1182
a(I343
I85
tp1183
a(I85
I84
tp1184
aa(lp1185
(I527
I528
tp1186
a(I528
I529
tp1187
a(I529
I447
tp1188
a(I447
I444
tp1189
a(I444
I525
tp1190
a(I525
I527
tp1191
aa(lp1192
(I115
I114
tp1193
a(I114
I103
tp1194
a(I103
I104
tp1195
a(I104
I74
tp1196
a(I74
I71
tp1197
a(I71
I115
tp1198
aa(lp1199
(I364
I362
tp1200
a(I362
I388
tp1201
a(I388
I374
tp1202
a(I374
I372
tp1203
a(I372
I385
tp1204
a(I385
I364
tp1205
aa(lp1206
(I352
I354
tp1207
a(I354
I361
tp1208
a(I361
I282
tp1209
a(I282
I93
tp1210
a(I93
I95
tp1211
a(I95
I352
tp1212
aa(lp1213
(I45
I47
tp1214
a(I47
I59
tp1215
a(I59
I60
tp1216
a(I60
I56
tp1217
a(I56
I54
tp1218
a(I54
I45
tp1219
aa(lp1220
(I746
I737
tp1221
a(I737
I729
tp1222
a(I729
I731
tp1223
a(I731
I743
tp1224
a(I743
I741
tp1225
a(I741
I746
tp1226
aa(lp1227
(I191
I194
tp1228
a(I194
I203
tp1229
a(I203
I202
tp1230
a(I202
I188
tp1231
a(I188
I187
tp1232
a(I187
I191
tp1233
aa(lp1234
(I716
I704
tp1235
a(I704
I703
tp1236
a(I703
I715
tp1237
a(I715
I718
tp1238
a(I718
I717
tp1239
a(I717
I716
tp1240
aa(lp1241
(I616
I635
tp1242
a(I635
I659
tp1243
a(I659
I660
tp1244
a(I660
I646
tp1245
a(I646
I615
tp1246
a(I615
I616
tp1247
aa(lp1248
(I435
I432
tp1249
a(I432
I438
tp1250
a(I438
I449
tp1251
a(I449
I453
tp1252
a(I453
I452
tp1253
a(I452
I435
tp1254
aa(lp1255
(I621
I416
tp1256
a(I416
I415
tp1257
a(I415
I609
tp1258
a(I609
I610
tp1259
a(I610
I622
tp1260
a(I622
I621
tp1261
aa(lp1262
(I550
I565
tp1263
a(I565
I564
tp1264
a(I564
I569
tp1265
a(I569
I577
tp1266
a(I577
I553
tp1267
a(I553
I550
tp1268
aa(lp1269
(I661
I660
tp1270
a(I660
I659
tp1271
a(I659
I638
tp1272
a(I638
I636
tp1273
a(I636
I662
tp1274
a(I662
I661
tp1275
aa(lp1276
(I387
I386
tp1277
a(I386
I385
tp1278
a(I385
I372
tp1279
a(I372
I371
tp1280
a(I371
I384
tp1281
a(I384
I387
tp1282
aa(lp1283
(I676
I670
tp1284
a(I670
I666
tp1285
a(I666
I657
tp1286
a(I657
I649
tp1287
a(I649
I675
tp1288
a(I675
I676
tp1289
aa(lp1290
(I554
I570
tp1291
a(I570
I572
tp1292
a(I572
I580
tp1293
a(I580
I578
tp1294
a(I578
I555
tp1295
a(I555
I554
tp1296
aa(lp1297
(I682
I655
tp1298
a(I655
I651
tp1299
a(I651
I683
tp1300
a(I683
I673
tp1301
a(I673
I672
tp1302
a(I672
I682
tp1303
aa(lp1304
(I584
I585
tp1305
a(I585
I539
tp1306
a(I539
I537
tp1307
a(I537
I567
tp1308
a(I567
I582
tp1309
a(I582
I584
tp1310
aa(lp1311
(I119
I143
tp1312
a(I143
I149
tp1313
a(I149
I150
tp1314
a(I150
I125
tp1315
a(I125
I118
tp1316
a(I118
I119
tp1317
aa(lp1318
(I629
I273
tp1319
a(I273
I271
tp1320
a(I271
I417
tp1321
a(I417
I624
tp1322
a(I624
I628
tp1323
a(I628
I629
tp1324
aa(lp1325
(I222
I225
tp1326
a(I225
I210
tp1327
a(I210
I209
tp1328
a(I209
I237
tp1329
a(I237
I233
tp1330
a(I233
I222
tp1331
aa(lp1332
(I504
I502
tp1333
a(I502
I506
tp1334
a(I506
I480
tp1335
a(I480
I477
tp1336
a(I477
I513
tp1337
a(I513
I504
tp1338
aa(lp1339
(I783
I781
tp1340
a(I781
I782
tp1341
a(I782
I779
tp1342
a(I779
I777
tp1343
a(I777
I784
tp1344
a(I784
I783
tp1345
aa(lp1346
(I62
I61
tp1347
a(I61
I48
tp1348
a(I48
I49
tp1349
a(I49
I66
tp1350
a(I66
I65
tp1351
a(I65
I62
tp1352
aa(lp1353
(I258
I141
tp1354
a(I141
I140
tp1355
a(I140
I221
tp1356
a(I221
I251
tp1357
a(I251
I252
tp1358
a(I252
I258
tp1359
aa(lp1360
(I255
I254
tp1361
a(I254
I249
tp1362
a(I249
I248
tp1363
a(I248
I219
tp1364
a(I219
I215
tp1365
a(I215
I255
tp1366
aa(lp1367
(I247
I254
tp1368
a(I254
I255
tp1369
a(I255
I256
tp1370
a(I256
I218
tp1371
a(I218
I216
tp1372
a(I216
I247
tp1373
aa(lp1374
(I24
I13
tp1375
a(I13
I768
tp1376
a(I768
I301
tp1377
a(I301
I90
tp1378
a(I90
I224
tp1379
a(I224
I24
tp1380
aa(lp1381
(I73
I70
tp1382
a(I70
I111
tp1383
a(I111
I114
tp1384
a(I114
I115
tp1385
a(I115
I116
tp1386
a(I116
I73
tp1387
aa(lp1388
(I68
I57
tp1389
a(I57
I79
tp1390
a(I79
I46
tp1391
a(I46
I556
tp1392
a(I556
I667
tp1393
a(I667
I68
tp1394
aa(lp1395
(I661
I663
tp1396
a(I663
I664
tp1397
a(I664
I648
tp1398
a(I648
I646
tp1399
a(I646
I660
tp1400
a(I660
I661
tp1401
aa(lp1402
(I103
I114
tp1403
a(I114
I111
tp1404
a(I111
I92
tp1405
a(I92
I91
tp1406
a(I91
I102
tp1407
a(I102
I103
tp1408
aa(lp1409
(I288
I289
tp1410
a(I289
I293
tp1411
a(I293
I265
tp1412
a(I265
I261
tp1413
a(I261
I263
tp1414
a(I263
I288
tp1415
aa(lp1416
(I277
I276
tp1417
a(I276
I292
tp1418
a(I292
I291
tp1419
a(I291
I289
tp1420
a(I289
I288
tp1421
a(I288
I277
tp1422
aa(lp1423
(I284
I367
tp1424
a(I367
I366
tp1425
a(I366
I387
tp1426
a(I387
I384
tp1427
a(I384
I383
tp1428
a(I383
I283
tp1429
a(I283
I284
tp1430
aa(lp1431
(I448
I469
tp1432
a(I469
I470
tp1433
a(I470
I531
tp1434
a(I531
I530
tp1435
a(I530
I428
tp1436
a(I428
I427
tp1437
a(I427
I448
tp1438
aa(lp1439
(I534
I3
tp1440
a(I3
I4
tp1441
a(I4
I795
tp1442
a(I795
I791
tp1443
a(I791
I789
tp1444
a(I789
I523
tp1445
a(I523
I534
tp1446
aa(lp1447
(I447
I529
tp1448
a(I529
I497
tp1449
a(I497
I481
tp1450
a(I481
I465
tp1451
a(I465
I469
tp1452
a(I469
I448
tp1453
a(I448
I447
tp1454
aa(lp1455
(I237
I238
tp1456
a(I238
I236
tp1457
a(I236
I234
tp1458
a(I234
I199
tp1459
a(I199
I198
tp1460
a(I198
I233
tp1461
a(I233
I237
tp1462
aa(lp1463
(I662
I666
tp1464
a(I666
I670
tp1465
a(I670
I669
tp1466
a(I669
I665
tp1467
a(I665
I663
tp1468
a(I663
I661
tp1469
a(I661
I662
tp1470
aa(lp1471
(I117
I105
tp1472
a(I105
I106
tp1473
a(I106
I119
tp1474
a(I119
I118
tp1475
a(I118
I120
tp1476
a(I120
I121
tp1477
a(I121
I117
tp1478
aa(lp1479
(I172
I173
tp1480
a(I173
I176
tp1481
a(I176
I175
tp1482
a(I175
I171
tp1483
a(I171
I164
tp1484
a(I164
I174
tp1485
a(I174
I172
tp1486
aa(lp1487
(I747
I758
tp1488
a(I758
I753
tp1489
a(I753
I751
tp1490
a(I751
I754
tp1491
a(I754
I597
tp1492
a(I597
I596
tp1493
a(I596
I747
tp1494
aa(lp1495
(I589
I588
tp1496
a(I588
I592
tp1497
a(I592
I604
tp1498
a(I604
I603
tp1499
a(I603
I602
tp1500
a(I602
I600
tp1501
a(I600
I589
tp1502
aa(lp1503
(I736
I739
tp1504
a(I739
I735
tp1505
a(I735
I738
tp1506
a(I738
I733
tp1507
a(I733
I729
tp1508
a(I729
I737
tp1509
a(I737
I736
tp1510
aa(lp1511
(I258
I252
tp1512
a(I252
I253
tp1513
a(I253
I275
tp1514
a(I275
I232
tp1515
a(I232
I230
tp1516
a(I230
I259
tp1517
a(I259
I258
tp1518
aa(lp1519
(I787
I590
tp1520
a(I590
I490
tp1521
a(I490
I512
tp1522
a(I512
I788
tp1523
a(I788
I190
tp1524
a(I190
I157
tp1525
a(I157
I787
tp1526
aa(lp1527
(I184
I699
tp1528
a(I699
I698
tp1529
a(I698
I695
tp1530
a(I695
I175
tp1531
a(I175
I176
tp1532
a(I176
I183
tp1533
a(I183
I184
tp1534
aa(lp1535
(I709
I700
tp1536
a(I700
I698
tp1537
a(I698
I699
tp1538
a(I699
I722
tp1539
a(I722
I724
tp1540
a(I724
I721
tp1541
a(I721
I709
tp1542
aa(lp1543
(I226
I227
tp1544
a(I227
I242
tp1545
a(I242
I241
tp1546
a(I241
I240
tp1547
a(I240
I214
tp1548
a(I214
I211
tp1549
a(I211
I226
tp1550
aa(lp1551
(I749
I594
tp1552
a(I594
I593
tp1553
a(I593
I750
tp1554
a(I750
I689
tp1555
a(I689
I602
tp1556
a(I602
I603
tp1557
a(I603
I749
tp1558
aa(lp1559
(I686
I644
tp1560
a(I644
I614
tp1561
a(I614
I617
tp1562
a(I617
I658
tp1563
a(I658
I684
tp1564
a(I684
I685
tp1565
a(I685
I686
tp1566
aa(lp1567
(I545
I6
tp1568
a(I6
I7
tp1569
a(I7
I8
tp1570
a(I8
I5
tp1571
a(I5
I3
tp1572
a(I3
I534
tp1573
a(I534
I545
tp1574
aa(lp1575
(I757
I755
tp1576
a(I755
I754
tp1577
a(I754
I751
tp1578
a(I751
I750
tp1579
a(I750
I593
tp1580
a(I593
I595
tp1581
a(I595
I757
tp1582
aa(lp1583
(I443
I463
tp1584
a(I463
I524
tp1585
a(I524
I518
tp1586
a(I518
I517
tp1587
a(I517
I525
tp1588
a(I525
I444
tp1589
a(I444
I443
tp1590
aa(lp1591
(I347
I345
tp1592
a(I345
I344
tp1593
a(I344
I342
tp1594
a(I342
I341
tp1595
a(I341
I339
tp1596
a(I339
I340
tp1597
a(I340
I347
tp1598
aa(lp1599
(I753
I752
tp1600
a(I752
I748
tp1601
a(I748
I688
tp1602
a(I688
I689
tp1603
a(I689
I750
tp1604
a(I750
I751
tp1605
a(I751
I753
tp1606
aa(lp1607
(I303
I309
tp1608
a(I309
I82
tp1609
a(I82
I80
tp1610
a(I80
I308
tp1611
a(I308
I307
tp1612
a(I307
I305
tp1613
a(I305
I303
tp1614
aa(lp1615
(I601
I568
tp1616
a(I568
I579
tp1617
a(I579
I612
tp1618
a(I612
I712
tp1619
a(I712
I701
tp1620
a(I701
I690
tp1621
a(I690
I601
tp1622
aa(lp1623
(I732
I731
tp1624
a(I731
I729
tp1625
a(I729
I733
tp1626
a(I733
I730
tp1627
a(I730
I727
tp1628
a(I727
I726
tp1629
a(I726
I732
tp1630
aa(lp1631
(I28
I27
tp1632
a(I27
I23
tp1633
a(I23
I22
tp1634
a(I22
I31
tp1635
a(I31
I29
tp1636
a(I29
I30
tp1637
a(I30
I28
tp1638
aa(lp1639
(I152
I151
tp1640
a(I151
I149
tp1641
a(I149
I143
tp1642
a(I143
I144
tp1643
a(I144
I154
tp1644
a(I154
I153
tp1645
a(I153
I152
tp1646
aa(lp1647
(I405
I402
tp1648
a(I402
I419
tp1649
a(I419
I418
tp1650
a(I418
I392
tp1651
a(I392
I376
tp1652
a(I376
I377
tp1653
a(I377
I405
tp1654
aa(lp1655
(I181
I182
tp1656
a(I182
I178
tp1657
a(I178
I177
tp1658
a(I177
I173
tp1659
a(I173
I172
tp1660
a(I172
I180
tp1661
a(I180
I181
tp1662
aa(lp1663
(I190
I788
tp1664
a(I788
I789
tp1665
a(I789
I791
tp1666
a(I791
I792
tp1667
a(I792
I790
tp1668
a(I790
I201
tp1669
a(I201
I190
tp1670
aa(lp1671
(I778
I782
tp1672
a(I782
I781
tp1673
a(I781
I786
tp1674
a(I786
I679
tp1675
a(I679
I656
tp1676
a(I656
I780
tp1677
a(I780
I778
tp1678
aa(lp1679
(I770
I769
tp1680
a(I769
I772
tp1681
a(I772
I323
tp1682
a(I323
I312
tp1683
a(I312
I764
tp1684
a(I764
I771
tp1685
a(I771
I770
tp1686
aa(lp1687
(I172
I174
tp1688
a(I174
I166
tp1689
a(I166
I165
tp1690
a(I165
I185
tp1691
a(I185
I186
tp1692
a(I186
I180
tp1693
a(I180
I172
tp1694
aa(lp1695
(I380
I358
tp1696
a(I358
I359
tp1697
a(I359
I349
tp1698
a(I349
I344
tp1699
a(I344
I345
tp1700
a(I345
I429
tp1701
a(I429
I380
tp1702
aa(lp1703
(I307
I308
tp1704
a(I308
I81
tp1705
a(I81
I77
tp1706
a(I77
I297
tp1707
a(I297
I296
tp1708
a(I296
I302
tp1709
a(I302
I307
tp1710
aa(lp1711
(I665
I669
tp1712
a(I669
I676
tp1713
a(I676
I675
tp1714
a(I675
I677
tp1715
a(I677
I678
tp1716
a(I678
I671
tp1717
a(I671
I665
tp1718
aa(lp1719
(I391
I287
tp1720
a(I287
I286
tp1721
a(I286
I369
tp1722
a(I369
I376
tp1723
a(I376
I392
tp1724
a(I392
I393
tp1725
a(I393
I391
tp1726
aa(lp1727
(I408
I532
tp1728
a(I532
I533
tp1729
a(I533
I541
tp1730
a(I541
I540
tp1731
a(I540
I542
tp1732
a(I542
I409
tp1733
a(I409
I408
tp1734
aa(lp1735
(I734
I777
tp1736
a(I777
I779
tp1737
a(I779
I778
tp1738
a(I778
I780
tp1739
a(I780
I668
tp1740
a(I668
I645
tp1741
a(I645
I734
tp1742
aa(lp1743
(I48
I47
tp1744
a(I47
I45
tp1745
a(I45
I39
tp1746
a(I39
I38
tp1747
a(I38
I50
tp1748
a(I50
I49
tp1749
a(I49
I48
tp1750
aa(lp1751
(I298
I14
tp1752
a(I14
I15
tp1753
a(I15
I760
tp1754
a(I760
I759
tp1755
a(I759
I423
tp1756
a(I423
I401
tp1757
a(I401
I298
tp1758
aa(lp1759
(I96
I97
tp1760
a(I97
I89
tp1761
a(I89
I88
tp1762
a(I88
I100
tp1763
a(I100
I99
tp1764
a(I99
I98
tp1765
a(I98
I96
tp1766
aa(lp1767
(I192
I189
tp1768
a(I189
I191
tp1769
a(I191
I187
tp1770
a(I187
I99
tp1771
a(I99
I100
tp1772
a(I100
I193
tp1773
a(I193
I192
tp1774
aa(lp1775
(I508
I514
tp1776
a(I514
I505
tp1777
a(I505
I489
tp1778
a(I489
I492
tp1779
a(I492
I515
tp1780
a(I515
I510
tp1781
a(I510
I508
tp1782
aa(lp1783
(I192
I167
tp1784
a(I167
I133
tp1785
a(I133
I141
tp1786
a(I141
I258
tp1787
a(I258
I259
tp1788
a(I259
I200
tp1789
a(I200
I189
tp1790
a(I189
I192
tp1791
aa(lp1792
(I482
I498
tp1793
a(I498
I488
tp1794
a(I488
I487
tp1795
a(I487
I499
tp1796
a(I499
I476
tp1797
a(I476
I473
tp1798
a(I473
I485
tp1799
a(I485
I482
tp1800
aa(lp1801
(I45
I54
tp1802
a(I54
I55
tp1803
a(I55
I51
tp1804
a(I51
I52
tp1805
a(I52
I53
tp1806
a(I53
I42
tp1807
a(I42
I39
tp1808
a(I39
I45
tp1809
aa(lp1810
(I300
I279
tp1811
a(I279
I290
tp1812
a(I290
I763
tp1813
a(I763
I762
tp1814
a(I762
I761
tp1815
a(I761
I306
tp1816
a(I306
I295
tp1817
a(I295
I300
tp1818
aa(lp1819
(I493
I519
tp1820
a(I519
I520
tp1821
a(I520
I517
tp1822
a(I517
I518
tp1823
a(I518
I516
tp1824
a(I516
I515
tp1825
a(I515
I492
tp1826
a(I492
I493
tp1827
aa(lp1828
(I180
I186
tp1829
a(I186
I260
tp1830
a(I260
I261
tp1831
a(I261
I265
tp1832
a(I265
I266
tp1833
a(I266
I264
tp1834
a(I264
I181
tp1835
a(I181
I180
tp1836
aa(lp1837
(I332
I333
tp1838
a(I333
I84
tp1839
a(I84
I83
tp1840
a(I83
I316
tp1841
a(I316
I325
tp1842
a(I325
I330
tp1843
a(I330
I331
tp1844
a(I331
I332
tp1845
aa(lp1846
(I280
I278
tp1847
a(I278
I294
tp1848
a(I294
I270
tp1849
a(I270
I269
tp1850
a(I269
I293
tp1851
a(I293
I289
tp1852
a(I289
I291
tp1853
a(I291
I280
tp1854
aa(lp1855
(I263
I261
tp1856
a(I261
I260
tp1857
a(I260
I169
tp1858
a(I169
I167
tp1859
a(I167
I192
tp1860
a(I192
I193
tp1861
a(I193
I262
tp1862
a(I262
I263
tp1863
aa(lp1864
(I204
I203
tp1865
a(I203
I194
tp1866
a(I194
I195
tp1867
a(I195
I207
tp1868
a(I207
I208
tp1869
a(I208
I206
tp1870
a(I206
I205
tp1871
a(I205
I204
tp1872
aa(lp1873
(I274
I272
tp1874
a(I272
I629
tp1875
a(I629
I628
tp1876
a(I628
I626
tp1877
a(I626
I625
tp1878
a(I625
I630
tp1879
a(I630
I631
tp1880
a(I631
I274
tp1881
aa(lp1882
(I734
I645
tp1883
a(I645
I457
tp1884
a(I457
I479
tp1885
a(I479
I690
tp1886
a(I690
I701
tp1887
a(I701
I723
tp1888
a(I723
I745
tp1889
a(I745
I734
tp1890
aa(lp1891
(I561
I562
tp1892
a(I562
I587
tp1893
a(I587
I588
tp1894
a(I588
I589
tp1895
a(I589
I591
tp1896
a(I591
I411
tp1897
a(I411
I410
tp1898
a(I410
I561
tp1899
aa(lp1900
(I710
I708
tp1901
a(I708
I711
tp1902
a(I711
I706
tp1903
a(I706
I707
tp1904
a(I707
I702
tp1905
a(I702
I700
tp1906
a(I700
I709
tp1907
a(I709
I710
tp1908
aa(lp1909
(I434
I579
tp1910
a(I579
I568
tp1911
a(I568
I501
tp1912
a(I501
I490
tp1913
a(I490
I590
tp1914
a(I590
I168
tp1915
a(I168
I146
tp1916
a(I146
I434
tp1917
aa(lp1918
(I623
I767
tp1919
a(I767
I775
tp1920
a(I775
I776
tp1921
a(I776
I745
tp1922
a(I745
I723
tp1923
a(I723
I756
tp1924
a(I756
I634
tp1925
a(I634
I623
tp1926
aa(lp1927
(I470
I469
tp1928
a(I469
I465
tp1929
a(I465
I466
tp1930
a(I466
I467
tp1931
a(I467
I464
tp1932
a(I464
I324
tp1933
a(I324
I322
tp1934
a(I322
I470
tp1935
aa(lp1936
(I702
I703
tp1937
a(I703
I704
tp1938
a(I704
I705
tp1939
a(I705
I697
tp1940
a(I697
I695
tp1941
a(I695
I698
tp1942
a(I698
I700
tp1943
a(I700
I702
tp1944
aa(lp1945
(I16
I6
tp1946
a(I6
I545
tp1947
a(I545
I557
tp1948
a(I557
I412
tp1949
a(I412
I390
tp1950
a(I390
I759
tp1951
a(I759
I760
tp1952
a(I760
I16
tp1953
aa(lp1954
(I438
I437
tp1955
a(I437
I450
tp1956
a(I450
I451
tp1957
a(I451
I426
tp1958
a(I426
I424
tp1959
a(I424
I431
tp1960
a(I431
I449
tp1961
a(I449
I438
tp1962
aa(lp1963
(I324
I321
tp1964
a(I321
I317
tp1965
a(I317
I318
tp1966
a(I318
I319
tp1967
a(I319
I320
tp1968
a(I320
I315
tp1969
a(I315
I310
tp1970
a(I310
I322
tp1971
a(I322
I324
tp1972
aa(lp1973
(I213
I243
tp1974
a(I243
I244
tp1975
a(I244
I242
tp1976
a(I242
I227
tp1977
a(I227
I228
tp1978
a(I228
I245
tp1979
a(I245
I247
tp1980
a(I247
I216
tp1981
a(I216
I213
tp1982
aa(lp1983
(I316
I83
tp1984
a(I83
I82
tp1985
a(I82
I309
tp1986
a(I309
I310
tp1987
a(I310
I315
tp1988
a(I315
I314
tp1989
a(I314
I313
tp1990
a(I313
I311
tp1991
a(I311
I316
tp1992
aa(lp1993
(I417
I416
tp1994
a(I416
I621
tp1995
a(I621
I613
tp1996
a(I613
I611
tp1997
a(I611
I627
tp1998
a(I627
I625
tp1999
a(I625
I626
tp2000
a(I626
I624
tp2001
a(I624
I417
tp2002
aa(lp2003
(I585
I584
tp2004
a(I584
I583
tp2005
a(I583
I558
tp2006
a(I558
I559
tp2007
a(I559
I586
tp2008
a(I586
I541
tp2009
a(I541
I533
tp2010
a(I533
I538
tp2011
a(I538
I585
tp2012
aa(lp2013
(I191
I189
tp2014
a(I189
I200
tp2015
a(I200
I196
tp2016
a(I196
I197
tp2017
a(I197
I198
tp2018
a(I198
I199
tp2019
a(I199
I195
tp2020
a(I195
I194
tp2021
a(I194
I191
tp2022
aa(lp2023
(I552
I549
tp2024
a(I549
I567
tp2025
a(I567
I537
tp2026
a(I537
I535
tp2027
a(I535
I563
tp2028
a(I563
I564
tp2029
a(I564
I565
tp2030
a(I565
I566
tp2031
a(I566
I552
tp2032
aa(lp2033
(I602
I689
tp2034
a(I689
I688
tp2035
a(I688
I687
tp2036
a(I687
I630
tp2037
a(I630
I625
tp2038
a(I625
I627
tp2039
a(I627
I618
tp2040
a(I618
I600
tp2041
a(I600
I602
tp2042
aa(lp2043
(I144
I143
tp2044
a(I143
I119
tp2045
a(I119
I106
tp2046
a(I106
I108
tp2047
a(I108
I122
tp2048
a(I122
I145
tp2049
a(I145
I147
tp2050
a(I147
I148
tp2051
a(I148
I144
tp2052
aa(lp2053
(I245
I228
tp2054
a(I228
I229
tp2055
a(I229
I253
tp2056
a(I253
I252
tp2057
a(I252
I251
tp2058
a(I251
I250
tp2059
a(I250
I248
tp2060
a(I248
I249
tp2061
a(I249
I245
tp2062
aa(lp2063
(I587
I562
tp2064
a(I562
I543
tp2065
a(I543
I36
tp2066
a(I36
I37
tp2067
a(I37
I44
tp2068
a(I44
I51
tp2069
a(I51
I55
tp2070
a(I55
I58
tp2071
a(I58
I587
tp2072
aa(lp2073
(I311
I318
tp2074
a(I318
I317
tp2075
a(I317
I329
tp2076
a(I329
I327
tp2077
a(I327
I328
tp2078
a(I328
I326
tp2079
a(I326
I325
tp2080
a(I325
I316
tp2081
a(I316
I311
tp2082
aa(lp2083
(I672
I673
tp2084
a(I673
I674
tp2085
a(I674
I653
tp2086
a(I653
I647
tp2087
a(I647
I664
tp2088
a(I664
I663
tp2089
a(I663
I665
tp2090
a(I665
I671
tp2091
a(I671
I672
tp2092
aa(lp2093
(I15
I14
tp2094
a(I14
I12
tp2095
a(I12
I11
tp2096
a(I11
I10
tp2097
a(I10
I9
tp2098
a(I9
I7
tp2099
a(I7
I6
tp2100
a(I6
I16
tp2101
a(I16
I15
tp2102
aa(lp2103
(I135
I357
tp2104
a(I357
I368
tp2105
a(I368
I446
tp2106
a(I446
I468
tp2107
a(I468
I479
tp2108
a(I479
I457
tp2109
a(I457
I434
tp2110
a(I434
I146
tp2111
a(I146
I135
tp2112
aa(lp2113
(I579
I434
tp2114
a(I434
I457
tp2115
a(I457
I645
tp2116
a(I645
I668
tp2117
a(I668
I656
tp2118
a(I656
I679
tp2119
a(I679
I623
tp2120
a(I623
I634
tp2121
a(I634
I612
tp2122
a(I612
I579
tp2123
aa(lp2124
(I163
I132
tp2125
a(I132
I133
tp2126
a(I133
I167
tp2127
a(I167
I169
tp2128
a(I169
I170
tp2129
a(I170
I165
tp2130
a(I165
I166
tp2131
a(I166
I164
tp2132
a(I164
I171
tp2133
a(I171
I163
tp2134
aa(lp2135
(I621
I622
tp2136
a(I622
I633
tp2137
a(I633
I632
tp2138
a(I632
I637
tp2139
a(I637
I636
tp2140
a(I636
I638
tp2141
a(I638
I635
tp2142
a(I635
I616
tp2143
a(I616
I613
tp2144
a(I613
I621
tp2145
aa(lp2146
(I574
I572
tp2147
a(I572
I570
tp2148
a(I570
I571
tp2149
a(I571
I569
tp2150
a(I569
I564
tp2151
a(I564
I563
tp2152
a(I563
I576
tp2153
a(I576
I575
tp2154
a(I575
I573
tp2155
a(I573
I574
tp2156
aa(lp2157
(I507
I506
tp2158
a(I506
I502
tp2159
a(I502
I500
tp2160
a(I500
I509
tp2161
a(I509
I508
tp2162
a(I508
I510
tp2163
a(I510
I511
tp2164
a(I511
I461
tp2165
a(I461
I458
tp2166
a(I458
I507
tp2167
aa(lp2168
(I14
I298
tp2169
a(I298
I299
tp2170
a(I299
I300
tp2171
a(I300
I295
tp2172
a(I295
I296
tp2173
a(I296
I297
tp2174
a(I297
I78
tp2175
a(I78
I43
tp2176
a(I43
I12
tp2177
a(I12
I14
tp2178
aa(lp2179
(I502
I504
tp2180
a(I504
I503
tp2181
a(I503
I478
tp2182
a(I478
I476
tp2183
a(I476
I499
tp2184
a(I499
I491
tp2185
a(I491
I489
tp2186
a(I489
I505
tp2187
a(I505
I500
tp2188
a(I500
I502
tp2189
aa(lp2190
(I89
I91
tp2191
a(I91
I92
tp2192
a(I92
I69
tp2193
a(I69
I67
tp2194
a(I67
I76
tp2195
a(I76
I94
tp2196
a(I94
I95
tp2197
a(I95
I93
tp2198
a(I93
I88
tp2199
a(I88
I89
tp2200
aa(lp2201
(I267
I269
tp2202
a(I269
I270
tp2203
a(I270
I271
tp2204
a(I271
I273
tp2205
a(I273
I272
tp2206
a(I272
I274
tp2207
a(I274
I182
tp2208
a(I182
I181
tp2209
a(I181
I264
tp2210
a(I264
I267
tp2211
aa(lp2212
(I481
I483
tp2213
a(I483
I484
tp2214
a(I484
I482
tp2215
a(I482
I485
tp2216
a(I485
I486
tp2217
a(I486
I475
tp2218
a(I475
I471
tp2219
a(I471
I466
tp2220
a(I466
I465
tp2221
a(I465
I481
tp2222
aa(lp2223
(I610
I614
tp2224
a(I614
I644
tp2225
a(I644
I643
tp2226
a(I643
I642
tp2227
a(I642
I641
tp2228
a(I641
I639
tp2229
a(I639
I640
tp2230
a(I640
I633
tp2231
a(I633
I622
tp2232
a(I622
I610
tp2233
aa(lp2234
(I390
I412
tp2235
a(I412
I379
tp2236
a(I379
I368
tp2237
a(I368
I357
tp2238
a(I357
I346
tp2239
a(I346
I246
tp2240
a(I246
I235
tp2241
a(I235
I401
tp2242
a(I401
I423
tp2243
a(I423
I390
tp2244
aa(lp2245
(I37
I11
tp2246
a(I11
I12
tp2247
a(I12
I43
tp2248
a(I43
I38
tp2249
a(I38
I39
tp2250
a(I39
I42
tp2251
a(I42
I41
tp2252
a(I41
I40
tp2253
a(I40
I44
tp2254
a(I44
I37
tp2255
aa(lp2256
(I534
I523
tp2257
a(I523
I512
tp2258
a(I512
I490
tp2259
a(I490
I501
tp2260
a(I501
I446
tp2261
a(I446
I368
tp2262
a(I368
I379
tp2263
a(I379
I557
tp2264
a(I557
I545
tp2265
a(I545
I534
tp2266
aa(lp2267
(I421
I430
tp2268
a(I430
I382
tp2269
a(I382
I380
tp2270
a(I380
I429
tp2271
a(I429
I432
tp2272
a(I432
I435
tp2273
a(I435
I436
tp2274
a(I436
I433
tp2275
a(I433
I431
tp2276
a(I431
I424
tp2277
a(I424
I421
tp2278
aa(lp2279
(I75
I66
tp2280
a(I66
I49
tp2281
a(I49
I50
tp2282
a(I50
I67
tp2283
a(I67
I69
tp2284
a(I69
I70
tp2285
a(I70
I73
tp2286
a(I73
I72
tp2287
a(I72
I71
tp2288
a(I71
I74
tp2289
a(I74
I75
tp2290
aa(lp2291
(I285
I282
tp2292
a(I282
I361
tp2293
a(I361
I356
tp2294
a(I356
I355
tp2295
a(I355
I363
tp2296
a(I363
I362
tp2297
a(I362
I364
tp2298
a(I364
I365
tp2299
a(I365
I366
tp2300
a(I366
I367
tp2301
a(I367
I285
tp2302
aa(lp2303
(I462
I463
tp2304
a(I463
I443
tp2305
a(I443
I442
tp2306
a(I442
I329
tp2307
a(I329
I317
tp2308
a(I317
I321
tp2309
a(I321
I459
tp2310
a(I459
I460
tp2311
a(I460
I458
tp2312
a(I458
I461
tp2313
a(I461
I462
tp2314
aa(lp2315
(I774
I785
tp2316
a(I785
I2
tp2317
a(I2
I667
tp2318
a(I667
I556
tp2319
a(I556
I223
tp2320
a(I223
I0
tp2321
a(I0
I1
tp2322
a(I1
I35
tp2323
a(I35
I13
tp2324
a(I13
I24
tp2325
a(I24
I774
tp2326
aa(lp2327
(I395
I397
tp2328
a(I397
I398
tp2329
a(I398
I399
tp2330
a(I399
I400
tp2331
a(I400
I394
tp2332
a(I394
I294
tp2333
a(I294
I278
tp2334
a(I278
I287
tp2335
a(I287
I391
tp2336
a(I391
I396
tp2337
a(I396
I395
tp2338
aa(lp2339
(I107
I108
tp2340
a(I108
I106
tp2341
a(I106
I105
tp2342
a(I105
I104
tp2343
a(I104
I103
tp2344
a(I103
I102
tp2345
a(I102
I97
tp2346
a(I97
I96
tp2347
a(I96
I109
tp2348
a(I109
I110
tp2349
a(I110
I107
tp2350
aa(lp2351
(I352
I353
tp2352
a(I353
I351
tp2353
a(I351
I87
tp2354
a(I87
I86
tp2355
a(I86
I350
tp2356
a(I350
I359
tp2357
a(I359
I358
tp2358
a(I358
I355
tp2359
a(I355
I356
tp2360
a(I356
I354
tp2361
a(I354
I352
tp2362
aa(lp2363
(I196
I230
tp2364
a(I230
I232
tp2365
a(I232
I231
tp2366
a(I231
I229
tp2367
a(I229
I228
tp2368
a(I228
I227
tp2369
a(I227
I226
tp2370
a(I226
I225
tp2371
a(I225
I222
tp2372
a(I222
I197
tp2373
a(I197
I196
tp2374
aa(lp2375
(I426
I425
tp2376
a(I425
I422
tp2377
a(I422
I427
tp2378
a(I427
I428
tp2379
a(I428
I406
tp2380
a(I406
I405
tp2381
a(I405
I377
tp2382
a(I377
I378
tp2383
a(I378
I421
tp2384
a(I421
I424
tp2385
a(I424
I426
tp2386
aa(lp2387
(I494
I495
tp2388
a(I495
I496
tp2389
a(I496
I493
tp2390
a(I493
I492
tp2391
a(I492
I489
tp2392
a(I489
I491
tp2393
a(I491
I487
tp2394
a(I487
I488
tp2395
a(I488
I483
tp2396
a(I483
I481
tp2397
a(I481
I497
tp2398
a(I497
I494
tp2399
aa(lp2400
(I246
I257
tp2401
a(I257
I113
tp2402
a(I113
I90
tp2403
a(I90
I301
tp2404
a(I301
I312
tp2405
a(I312
I323
tp2406
a(I323
I335
tp2407
a(I335
I290
tp2408
a(I290
I279
tp2409
a(I279
I268
tp2410
a(I268
I235
tp2411
a(I235
I246
tp2412
aa(lp2413
(I306
I761
tp2414
a(I761
I765
tp2415
a(I765
I766
tp2416
a(I766
I764
tp2417
a(I764
I312
tp2418
a(I312
I301
tp2419
a(I301
I768
tp2420
a(I768
I35
tp2421
a(I35
I1
tp2422
a(I1
I112
tp2423
a(I112
I445
tp2424
a(I445
I306
tp2425
aa(lp2426
(I161
I158
tp2427
a(I158
I159
tp2428
a(I159
I162
tp2429
a(I162
I163
tp2430
a(I163
I171
tp2431
a(I171
I175
tp2432
a(I175
I695
tp2433
a(I695
I697
tp2434
a(I697
I696
tp2435
a(I696
I694
tp2436
a(I694
I692
tp2437
a(I692
I691
tp2438
a(I691
I161
tp2439
aa(lp2440
(I477
I480
tp2441
a(I480
I459
tp2442
a(I459
I321
tp2443
a(I321
I324
tp2444
a(I324
I464
tp2445
a(I464
I472
tp2446
a(I472
I471
tp2447
a(I471
I475
tp2448
a(I475
I474
tp2449
a(I474
I473
tp2450
a(I473
I476
tp2451
a(I476
I478
tp2452
a(I478
I477
tp2453
aa(lp2454
(I693
I694
tp2455
a(I694
I696
tp2456
a(I696
I728
tp2457
a(I728
I726
tp2458
a(I726
I727
tp2459
a(I727
I725
tp2460
a(I725
I722
tp2461
a(I722
I699
tp2462
a(I699
I184
tp2463
a(I184
I178
tp2464
a(I178
I182
tp2465
a(I182
I274
tp2466
a(I274
I631
tp2467
a(I631
I693
tp2468
aa(lp2469
(I322
I310
tp2470
a(I310
I309
tp2471
a(I309
I303
tp2472
a(I303
I304
tp2473
a(I304
I536
tp2474
a(I536
I535
tp2475
a(I535
I537
tp2476
a(I537
I539
tp2477
a(I539
I538
tp2478
a(I538
I533
tp2479
a(I533
I532
tp2480
a(I532
I531
tp2481
a(I531
I470
tp2482
a(I470
I322
tp2483
aa(lp2484
(I550
I553
tp2485
a(I553
I554
tp2486
a(I554
I555
tp2487
a(I555
I544
tp2488
a(I544
I543
tp2489
a(I543
I562
tp2490
a(I562
I561
tp2491
a(I561
I560
tp2492
a(I560
I559
tp2493
a(I559
I558
tp2494
a(I558
I549
tp2495
a(I549
I552
tp2496
a(I552
I551
tp2497
a(I551
I550
tp2498
aa(lp2499
(I724
I725
tp2500
a(I725
I727
tp2501
a(I727
I730
tp2502
a(I730
I744
tp2503
a(I744
I739
tp2504
a(I739
I736
tp2505
a(I736
I742
tp2506
a(I742
I741
tp2507
a(I741
I743
tp2508
a(I743
I720
tp2509
a(I720
I708
tp2510
a(I708
I710
tp2511
a(I710
I721
tp2512
a(I721
I724
tp2513
aa(lp2514
(I732
I728
tp2515
a(I728
I696
tp2516
a(I696
I697
tp2517
a(I697
I705
tp2518
a(I705
I719
tp2519
a(I719
I717
tp2520
a(I717
I718
tp2521
a(I718
I714
tp2522
a(I714
I706
tp2523
a(I706
I711
tp2524
a(I711
I720
tp2525
a(I720
I743
tp2526
a(I743
I731
tp2527
a(I731
I732
tp2528
aa(lp2529
(I43
I78
tp2530
a(I78
I77
tp2531
a(I77
I81
tp2532
a(I81
I80
tp2533
a(I80
I82
tp2534
a(I82
I83
tp2535
a(I83
I84
tp2536
a(I84
I85
tp2537
a(I85
I86
tp2538
a(I86
I87
tp2539
a(I87
I76
tp2540
a(I76
I67
tp2541
a(I67
I50
tp2542
a(I50
I38
tp2543
a(I38
I43
tp2544
aa(lp2545
(I592
I588
tp2546
a(I588
I587
tp2547
a(I587
I58
tp2548
a(I58
I56
tp2549
a(I56
I60
tp2550
a(I60
I63
tp2551
a(I63
I64
tp2552
a(I64
I596
tp2553
a(I596
I597
tp2554
a(I597
I598
tp2555
a(I598
I599
tp2556
a(I599
I595
tp2557
a(I595
I593
tp2558
a(I593
I594
tp2559
a(I594
I592
tp2560
aa(lp2561
(I33
I29
tp2562
a(I29
I31
tp2563
a(I31
I25
tp2564
a(I25
I19
tp2565
a(I19
I21
tp2566
a(I21
I34
tp2567
a(I34
I36
tp2568
a(I36
I543
tp2569
a(I543
I544
tp2570
a(I544
I546
tp2571
a(I546
I547
tp2572
a(I547
I548
tp2573
a(I548
I536
tp2574
a(I536
I304
tp2575
a(I304
I33
tp2576
aa(lp2577
(I218
I217
tp2578
a(I217
I215
tp2579
a(I215
I219
tp2580
a(I219
I220
tp2581
a(I220
I221
tp2582
a(I221
I140
tp2583
a(I140
I139
tp2584
a(I139
I205
tp2585
a(I205
I206
tp2586
a(I206
I209
tp2587
a(I209
I210
tp2588
a(I210
I211
tp2589
a(I211
I214
tp2590
a(I214
I213
tp2591
a(I213
I216
tp2592
a(I216
I218
tp2593
aa(lp2594
(I287
I278
tp2595
a(I278
I280
tp2596
a(I280
I281
tp2597
a(I281
I276
tp2598
a(I276
I277
tp2599
a(I277
I262
tp2600
a(I262
I193
tp2601
a(I193
I100
tp2602
a(I100
I88
tp2603
a(I88
I93
tp2604
a(I93
I282
tp2605
a(I282
I285
tp2606
a(I285
I284
tp2607
a(I284
I283
tp2608
a(I283
I286
tp2609
a(I286
I287
tp2610
aa(lp2611
(I610
I609
tp2612
a(I609
I606
tp2613
a(I606
I607
tp2614
a(I607
I608
tp2615
a(I608
I605
tp2616
a(I605
I591
tp2617
a(I591
I589
tp2618
a(I589
I600
tp2619
a(I600
I618
tp2620
a(I618
I611
tp2621
a(I611
I613
tp2622
a(I613
I616
tp2623
a(I616
I615
tp2624
a(I615
I617
tp2625
a(I617
I614
tp2626
a(I614
I610
tp2627
aa(lp2628
(I371
I372
tp2629
a(I372
I374
tp2630
a(I374
I375
tp2631
a(I375
I373
tp2632
a(I373
I363
tp2633
a(I363
I355
tp2634
a(I355
I358
tp2635
a(I358
I380
tp2636
a(I380
I382
tp2637
a(I382
I381
tp2638
a(I381
I378
tp2639
a(I378
I377
tp2640
a(I377
I376
tp2641
a(I376
I369
tp2642
a(I369
I370
tp2643
a(I370
I371
tp2644
aa(lp2645
(I101
I124
tp2646
a(I124
I135
tp2647
a(I135
I146
tp2648
a(I146
I168
tp2649
a(I168
I179
tp2650
a(I179
I157
tp2651
a(I157
I190
tp2652
a(I190
I201
tp2653
a(I201
I212
tp2654
a(I212
I79
tp2655
a(I79
I57
tp2656
a(I57
I785
tp2657
a(I785
I774
tp2658
a(I774
I224
tp2659
a(I224
I90
tp2660
a(I90
I113
tp2661
a(I113
I101
tp2662
aa(lp2663
(I647
I653
tp2664
a(I653
I652
tp2665
a(I652
I654
tp2666
a(I654
I651
tp2667
a(I651
I655
tp2668
a(I655
I650
tp2669
a(I650
I649
tp2670
a(I649
I657
tp2671
a(I657
I637
tp2672
a(I637
I632
tp2673
a(I632
I640
tp2674
a(I640
I639
tp2675
a(I639
I658
tp2676
a(I658
I617
tp2677
a(I617
I615
tp2678
a(I615
I646
tp2679
a(I646
I648
tp2680
a(I648
I647
tp2681
aa(lp2682
(I66
I75
tp2683
a(I75
I117
tp2684
a(I117
I121
tp2685
a(I121
I155
tp2686
a(I155
I156
tp2687
a(I156
I129
tp2688
a(I129
I142
tp2689
a(I142
I160
tp2690
a(I160
I161
tp2691
a(I161
I691
tp2692
a(I691
I687
tp2693
a(I687
I688
tp2694
a(I688
I748
tp2695
a(I748
I747
tp2696
a(I747
I596
tp2697
a(I596
I64
tp2698
a(I64
I65
tp2699
a(I65
I66
tp2700
aa(lp2701
(I338
I337
tp2702
a(I337
I440
tp2703
a(I440
I441
tp2704
a(I441
I442
tp2705
a(I442
I443
tp2706
a(I443
I444
tp2707
a(I444
I447
tp2708
a(I447
I448
tp2709
a(I448
I427
tp2710
a(I427
I422
tp2711
a(I422
I439
tp2712
a(I439
I437
tp2713
a(I437
I438
tp2714
a(I438
I432
tp2715
a(I432
I429
tp2716
a(I429
I345
tp2717
a(I345
I347
tp2718
a(I347
I338
tp2719
aa(lp2720
(I404
I403
tp2721
a(I403
I402
tp2722
a(I402
I405
tp2723
a(I405
I406
tp2724
a(I406
I407
tp2725
a(I407
I408
tp2726
a(I408
I409
tp2727
a(I409
I410
tp2728
a(I410
I411
tp2729
a(I411
I413
tp2730
a(I413
I414
tp2731
a(I414
I415
tp2732
a(I415
I416
tp2733
a(I416
I417
tp2734
a(I417
I271
tp2735
a(I271
I270
tp2736
a(I270
I294
tp2737
a(I294
I394
tp2738
a(I394
I404
tp2739
aa(lp2740
(I132
I131
tp2741
a(I131
I130
tp2742
a(I130
I142
tp2743
a(I142
I129
tp2744
a(I129
I128
tp2745
a(I128
I127
tp2746
a(I127
I120
tp2747
a(I120
I118
tp2748
a(I118
I125
tp2749
a(I125
I123
tp2750
a(I123
I126
tp2751
a(I126
I122
tp2752
a(I122
I108
tp2753
a(I108
I107
tp2754
a(I107
I136
tp2755
a(I136
I134
tp2756
a(I134
I137
tp2757
a(I137
I138
tp2758
a(I138
I139
tp2759
a(I139
I140
tp2760
a(I140
I141
tp2761
a(I141
I133
tp2762
a(I133
I132
tp2763
aa(lp2764
(I8
I18
tp2765
a(I18
I20
tp2766
a(I20
I26
tp2767
a(I26
I32
tp2768
a(I32
I28
tp2769
a(I28
I30
tp2770
a(I30
I33
tp2771
a(I33
I304
tp2772
a(I304
I303
tp2773
a(I303
I305
tp2774
a(I305
I302
tp2775
a(I302
I296
tp2776
a(I296
I295
tp2777
a(I295
I306
tp2778
a(I306
I445
tp2779
a(I445
I334
tp2780
a(I334
I46
tp2781
a(I46
I79
tp2782
a(I79
I212
tp2783
a(I212
I794
tp2784
a(I794
I795
tp2785
a(I795
I4
tp2786
a(I4
I5
tp2787
a(I5
I8
tp2788
aa.