(lp0
(lp1
(I7
I25
tp2
a(I25
I3
tp3
a(I3
I7
tp4
aa(lp5
(I34
I73
tp6
a(I73
I33
tp7
a(I33
I34
tp8
aa(lp9
(I114
I109
tp10
a(I109
I110
tp11
a(I110
I114
tp12
aa(lp13
(I120
I118
tp14
a(I118
I121
tp15
a(I121
I120
tp16
aa(lp17
(I140
I142
tp18
a(I142
I159
tp19
a(I159
I140
tp20
aa(lp21
(I52
I63
tp22
a(I63
I44
tp23
a(I44
I52
tp24
aa(lp25
(I105
I106
tp26
a(I106
I107
tp27
a(I107
I105
tp28
aa(lp29
(I111
I112
tp30
a(I112
I115
tp31
a(I115
I111
tp32
aa(lp33
(I94
I95
tp34
a(I95
I99
tp35
a(I99
I94
tp36
aa(lp37
(I183
I172
tp38
a(I172
I173
tp39
a(I173
I183
tp40
aa(lp41
(I46
I108
tp42
a(I108
I141
tp43
a(I141
I46
tp44
aa(lp45
(I36
I37
tp46
a(I37
I74
tp47
a(I74
I36
tp48
aa(lp49
(I35
I57
tp50
a(I57
I104
tp51
a(I104
I35
tp52
aa(lp53
(I51
I87
tp54
a(I87
I50
tp55
a(I50
I51
tp56
aa(lp57
(I10
I11
tp58
a(I11
I12
tp59
a(I12
I10
tp60
aa(lp61
(I153
I154
tp62
a(I154
I150
tp63
a(I150
I153
tp64
aa(lp65
(I92
I53
tp66
a(I53
I56
tp67
a(I56
I92
tp68
aa(lp69
(I1
I152
tp70
a(I152
I119
tp71
a(I119
I1
tp72
aa(lp73
(I193
I176
tp74
a(I176
I178
tp75
a(I178
I193
tp76
aa(lp77
(I59
I60
tp78
a(I60
I70
tp79
a(I70
I59
tp80
aa(lp81
(I20
I15
tp82
a(I15
I16
tp83
a(I16
I20
tp84
aa(lp85
(I135
I100
tp86
a(I100
I98
tp87
a(I98
I133
tp88
a(I133
I135
tp89
aa(lp90
(I55
I54
tp91
a(I54
I91
tp92
a(I91
I93
tp93
a(I93
I55
tp94
aa(lp95
(I65
I89
tp96
a(I89
I81
tp97
a(I81
I61
tp98
a(I61
I65
tp99
aa(lp100
(I64
I88
tp101
a(I88
I89
tp102
a(I89
I65
tp103
a(I65
I64
tp104
aa(lp105
(I55
I93
tp106
a(I93
I86
tp107
a(I86
I48
tp108
a(I48
I55
tp109
aa(lp110
(I168
I166
tp111
a(I166
I161
tp112
a(I161
I167
tp113
a(I167
I168
tp114
aa(lp115
(I6
I23
tp116
a(I23
I25
tp117
a(I25
I7
tp118
a(I7
I6
tp119
aa(lp120
(I86
I93
tp121
a(I93
I91
tp122
a(I91
I85
tp123
a(I85
I86
tp124
aa(lp125
(I183
I182
tp126
a(I182
I171
tp127
a(I171
I172
tp128
a(I172
I183
tp129
aa(lp130
(I193
I178
tp131
a(I178
I177
tp132
a(I177
I190
tp133
a(I190
I193
tp134
aa(lp135
(I5
I8
tp136
a(I8
I58
tp137
a(I58
I30
tp138
a(I30
I5
tp139
aa(lp140
(I169
I171
tp141
a(I171
I182
tp142
a(I182
I170
tp143
a(I170
I169
tp144
aa(lp145
(I131
I125
tp146
a(I125
I124
tp147
a(I124
I128
tp148
a(I128
I131
tp149
aa(lp150
(I69
I72
tp151
a(I72
I77
tp152
a(I77
I75
tp153
a(I75
I69
tp154
aa(lp155
(I114
I24
tp156
a(I24
I13
tp157
a(I13
I109
tp158
a(I109
I114
tp159
aa(lp160
(I186
I191
tp161
a(I191
I188
tp162
a(I188
I184
tp163
a(I184
I186
tp164
aa(lp165
(I155
I160
tp166
a(I160
I149
tp167
a(I149
I147
tp168
a(I147
I155
tp169
aa(lp170
(I107
I126
tp171
a(I126
I127
tp172
a(I127
I105
tp173
a(I105
I107
tp174
aa(lp175
(I41
I78
tp176
a(I78
I76
tp177
a(I76
I39
tp178
a(I39
I41
tp179
aa(lp180
(I19
I195
tp181
a(I195
I4
tp182
a(I4
I21
tp183
a(I21
I19
tp184
aa(lp185
(I154
I139
tp186
a(I139
I138
tp187
a(I138
I146
tp188
a(I146
I150
tp189
a(I150
I154
tp190
aa(lp191
(I27
I28
tp192
a(I28
I18
tp193
a(I18
I17
tp194
a(I17
I22
tp195
a(I22
I27
tp196
aa(lp197
(I20
I19
tp198
a(I19
I21
tp199
a(I21
I14
tp200
a(I14
I15
tp201
a(I15
I20
tp202
aa(lp203
(I103
I102
tp204
a(I102
I100
tp205
a(I100
I135
tp206
a(I135
I134
tp207
a(I134
I103
tp208
aa(lp209
(I47
I66
tp210
a(I66
I73
tp211
a(I73
I34
tp212
a(I34
I32
tp213
a(I32
I47
tp214
aa(lp215
(I190
I189
tp216
a(I189
I175
tp217
a(I175
I176
tp218
a(I176
I193
tp219
a(I193
I190
tp220
aa(lp221
(I116
I113
tp222
a(I113
I111
tp223
a(I111
I115
tp224
a(I115
I117
tp225
a(I117
I116
tp226
aa(lp227
(I153
I151
tp228
a(I151
I144
tp229
a(I144
I139
tp230
a(I139
I154
tp231
a(I154
I153
tp232
aa(lp233
(I80
I81
tp234
a(I81
I89
tp235
a(I89
I88
tp236
a(I88
I84
tp237
a(I84
I80
tp238
aa(lp239
(I166
I168
tp240
a(I168
I148
tp241
a(I148
I149
tp242
a(I149
I160
tp243
a(I160
I166
tp244
aa(lp245
(I75
I77
tp246
a(I77
I78
tp247
a(I78
I41
tp248
a(I41
I40
tp249
a(I40
I75
tp250
aa(lp251
(I72
I71
tp252
a(I71
I76
tp253
a(I76
I78
tp254
a(I78
I77
tp255
a(I77
I72
tp256
aa(lp257
(I87
I62
tp258
a(I62
I63
tp259
a(I63
I52
tp260
a(I52
I50
tp261
a(I50
I87
tp262
aa(lp263
(I153
I150
tp264
a(I150
I146
tp265
a(I146
I145
tp266
a(I145
I151
tp267
a(I151
I153
tp268
aa(lp269
(I167
I161
tp270
a(I161
I162
tp271
a(I162
I169
tp272
a(I169
I170
tp273
a(I170
I167
tp274
aa(lp275
(I163
I152
tp276
a(I152
I1
tp277
a(I1
I0
tp278
a(I0
I174
tp279
a(I174
I163
tp280
aa(lp281
(I156
I157
tp282
a(I157
I187
tp283
a(I187
I186
tp284
a(I186
I184
tp285
a(I184
I165
tp286
a(I165
I156
tp287
aa(lp288
(I185
I101
tp289
a(I101
I90
tp290
a(I90
I79
tp291
a(I79
I68
tp292
a(I68
I2
tp293
a(I2
I185
tp294
aa(lp295
(I102
I96
tp296
a(I96
I94
tp297
a(I94
I99
tp298
a(I99
I98
tp299
a(I98
I100
tp300
a(I100
I102
tp301
aa(lp302
(I119
I130
tp303
a(I130
I141
tp304
a(I141
I108
tp305
a(I108
I0
tp306
a(I0
I1
tp307
a(I1
I119
tp308
aa(lp309
(I10
I180
tp310
a(I180
I179
tp311
a(I179
I192
tp312
a(I192
I194
tp313
a(I194
I11
tp314
a(I11
I10
tp315
aa(lp316
(I67
I74
tp317
a(I74
I37
tp318
a(I37
I33
tp319
a(I33
I73
tp320
a(I73
I66
tp321
a(I66
I67
tp322
aa(lp323
(I189
I188
tp324
a(I188
I191
tp325
a(I191
I192
tp326
a(I192
I179
tp327
a(I179
I175
tp328
a(I175
I189
tp329
aa(lp330
(I30
I29
tp331
a(I29
I26
tp332
a(I26
I23
tp333
a(I23
I6
tp334
a(I6
I5
tp335
a(I5
I30
tp336
aa(lp337
(I122
I123
tp338
a(I123
I121
tp339
a(I121
I118
tp340
a(I118
I79
tp341
a(I79
I90
tp342
a(I90
I122
tp343
aa(lp344
(I76
I71
tp345
a(I71
I70
tp346
a(I70
I60
tp347
a(I60
I38
tp348
a(I38
I39
tp349
a(I39
I76
tp350
aa(lp351
(I48
I86
tp352
a(I86
I85
tp353
a(I85
I82
tp354
a(I82
I80
tp355
a(I80
I84
tp356
a(I84
I49
tp357
a(I49
I48
tp358
aa(lp359
(I62
I87
tp360
a(I87
I51
tp361
a(I51
I49
tp362
a(I49
I84
tp363
a(I84
I88
tp364
a(I88
I64
tp365
a(I64
I62
tp366
aa(lp367
(I148
I145
tp368
a(I145
I146
tp369
a(I146
I138
tp370
a(I138
I137
tp371
a(I137
I147
tp372
a(I147
I149
tp373
a(I149
I148
tp374
aa(lp375
(I74
I67
tp376
a(I67
I69
tp377
a(I69
I75
tp378
a(I75
I40
tp379
a(I40
I31
tp380
a(I31
I36
tp381
a(I36
I74
tp382
aa(lp383
(I43
I42
tp384
a(I42
I61
tp385
a(I61
I81
tp386
a(I81
I80
tp387
a(I80
I82
tp388
a(I82
I83
tp389
a(I83
I43
tp390
aa(lp391
(I164
I165
tp392
a(I165
I184
tp393
a(I184
I188
tp394
a(I188
I189
tp395
a(I189
I190
tp396
a(I190
I177
tp397
a(I177
I164
tp398
aa(lp399
(I101
I185
tp400
a(I185
I35
tp401
a(I35
I104
tp402
a(I104
I106
tp403
a(I106
I105
tp404
a(I105
I127
tp405
a(I127
I101
tp406
aa(lp407
(I117
I115
tp408
a(I115
I112
tp409
a(I112
I68
tp410
a(I68
I79
tp411
a(I79
I118
tp412
a(I118
I120
tp413
a(I120
I117
tp414
aa(lp415
(I53
I92
tp416
a(I92
I83
tp417
a(I83
I82
tp418
a(I82
I85
tp419
a(I85
I91
tp420
a(I91
I54
tp421
a(I54
I53
tp422
aa(lp423
(I12
I11
tp424
a(I11
I194
tp425
a(I194
I195
tp426
a(I195
I19
tp427
a(I19
I20
tp428
a(I20
I16
tp429
a(I16
I12
tp430
aa(lp431
(I132
I136
tp432
a(I136
I131
tp433
a(I131
I128
tp434
a(I128
I129
tp435
a(I129
I134
tp436
a(I134
I135
tp437
a(I135
I133
tp438
a(I133
I132
tp439
aa(lp440
(I142
I132
tp441
a(I132
I133
tp442
a(I133
I98
tp443
a(I98
I99
tp444
a(I99
I95
tp445
a(I95
I158
tp446
a(I158
I159
tp447
a(I159
I142
tp448
aa(lp449
(I103
I134
tp450
a(I134
I129
tp451
a(I129
I116
tp452
a(I116
I117
tp453
a(I117
I120
tp454
a(I120
I121
tp455
a(I121
I123
tp456
a(I123
I103
tp457
aa(lp458
(I111
I113
tp459
a(I113
I110
tp460
a(I110
I109
tp461
a(I109
I13
tp462
a(I13
I2
tp463
a(I2
I68
tp464
a(I68
I112
tp465
a(I112
I111
tp466
aa(lp467
(I96
I97
tp468
a(I97
I9
tp469
a(I9
I187
tp470
a(I187
I157
tp471
a(I157
I158
tp472
a(I158
I95
tp473
a(I95
I94
tp474
a(I94
I96
tp475
aa(lp476
(I46
I141
tp477
a(I141
I130
tp478
a(I130
I126
tp479
a(I126
I107
tp480
a(I107
I106
tp481
a(I106
I104
tp482
a(I104
I57
tp483
a(I57
I46
tp484
aa(lp485
(I155
I156
tp486
a(I156
I165
tp487
a(I165
I164
tp488
a(I164
I162
tp489
a(I162
I161
tp490
a(I161
I166
tp491
a(I166
I160
tp492
a(I160
I155
tp493
aa(lp494
(I140
I159
tp495
a(I159
I158
tp496
a(I158
I157
tp497
a(I157
I156
tp498
a(I156
I155
tp499
a(I155
I147
tp500
a(I147
I137
tp501
a(I137
I140
tp502
aa(lp503
(I40
I41
tp504
a(I41
I39
tp505
a(I39
I38
tp506
a(I38
I42
tp507
a(I42
I43
tp508
a(I43
I28
tp509
a(I28
I27
tp510
a(I27
I31
tp511
a(I31
I40
tp512
aa(lp513
(I23
I26
tp514
a(I26
I22
tp515
a(I22
I17
tp516
a(I17
I14
tp517
a(I14
I21
tp518
a(I21
I4
tp519
a(I4
I3
tp520
a(I3
I25
tp521
a(I25
I23
tp522
aa(lp523
(I17
I18
tp524
a(I18
I181
tp525
a(I181
I180
tp526
a(I180
I10
tp527
a(I10
I12
tp528
a(I12
I16
tp529
a(I16
I15
tp530
a(I15
I14
tp531
a(I14
I17
tp532
aa(lp533
(I140
I137
tp534
a(I137
I138
tp535
a(I138
I139
tp536
a(I139
I144
tp537
a(I144
I143
tp538
a(I143
I136
tp539
a(I136
I132
tp540
a(I132
I142
tp541
a(I142
I140
tp542
aa(lp543
(I67
I66
tp544
a(I66
I47
tp545
a(I47
I45
tp546
a(I45
I59
tp547
a(I59
I70
tp548
a(I70
I71
tp549
a(I71
I72
tp550
a(I72
I69
tp551
a(I69
I67
tp552
aa(lp553
(I114
I110
tp554
a(I110
I113
tp555
a(I113
I116
tp556
a(I116
I129
tp557
a(I129
I128
tp558
a(I128
I124
tp559
a(I124
I163
tp560
a(I163
I174
tp561
a(I174
I24
tp562
a(I24
I114
tp563
aa(lp564
(I174
I0
tp565
a(I0
I108
tp566
a(I108
I46
tp567
a(I46
I57
tp568
a(I57
I35
tp569
a(I35
I185
tp570
a(I185
I2
tp571
a(I2
I13
tp572
a(I13
I24
tp573
a(I24
I174
tp574
aa(lp575
(I37
I36
tp576
a(I36
I31
tp577
a(I31
I27
tp578
a(I27
I22
tp579
a(I22
I26
tp580
a(I26
I29
tp581
a(I29
I32
tp582
a(I32
I34
tp583
a(I34
I33
tp584
a(I33
I37
tp585
aa(lp586
(I125
I131
tp587
a(I131
I136
tp588
a(I136
I143
tp589
a(I143
I97
tp590
a(I97
I96
tp591
a(I96
I102
tp592
a(I102
I103
tp593
a(I103
I123
tp594
a(I123
I122
tp595
a(I122
I125
tp596
aa(lp597
(I62
I64
tp598
a(I64
I65
tp599
a(I65
I61
tp600
a(I61
I42
tp601
a(I42
I38
tp602
a(I38
I60
tp603
a(I60
I59
tp604
a(I59
I45
tp605
a(I45
I44
tp606
a(I44
I63
tp607
a(I63
I62
tp608
aa(lp609
(I163
I124
tp610
a(I124
I125
tp611
a(I125
I122
tp612
a(I122
I90
tp613
a(I90
I101
tp614
a(I101
I127
tp615
a(I127
I126
tp616
a(I126
I130
tp617
a(I130
I119
tp618
a(I119
I152
tp619
a(I152
I163
tp620
aa(lp621
(I7
I3
tp622
a(I3
I4
tp623
a(I4
I195
tp624
a(I195
I194
tp625
a(I194
I192
tp626
a(I192
I191
tp627
a(I191
I186
tp628
a(I186
I187
tp629
a(I187
I9
tp630
a(I9
I8
tp631
a(I8
I5
tp632
a(I5
I6
tp633
a(I6
I7
tp634
aa(lp635
(I181
I173
tp636
a(I173
I172
tp637
a(I172
I171
tp638
a(I171
I169
tp639
a(I169
I162
tp640
a(I162
I164
tp641
a(I164
I177
tp642
a(I177
I178
tp643
a(I178
I176
tp644
a(I176
I175
tp645
a(I175
I179
tp646
a(I179
I180
tp647
a(I180
I181
tp648
aa(lp649
(I54
I55
tp650
a(I55
I48
tp651
a(I48
I49
tp652
a(I49
I51
tp653
a(I51
I50
tp654
a(I50
I52
tp655
a(I52
I44
tp656
a(I44
I45
tp657
a(I45
I47
tp658
a(I47
I32
tp659
a(I32
I29
tp660
a(I29
I30
tp661
a(I30
I58
tp662
a(I58
I56
tp663
a(I56
I53
tp664
a(I53
I54
tp665
aa(lp666
(I151
I145
tp667
a(I145
I148
tp668
a(I148
I168
tp669
a(I168
I167
tp670
a(I167
I170
tp671
a(I170
I182
tp672
a(I182
I183
tp673
a(I183
I173
tp674
a(I173
I181
tp675
a(I181
I18
tp676
a(I18
I28
tp677
a(I28
I43
tp678
a(I43
I83
tp679
a(I83
I92
tp680
a(I92
I56
tp681
a(I56
I58
tp682
a(I58
I8
tp683
a(I8
I9
tp684
a(I9
I97
tp685
a(I97
I143
tp686
a(I143
I144
tp687
a(I144
I151
tp688
aa.