(lp0
(lp1
(I257
I290
tp2
a(I290
I279
tp3
a(I279
I257
tp4
aa(lp5
(I246
I157
tp6
a(I157
I146
tp7
a(I146
I246
tp8
aa(lp9
(I84
I95
tp10
a(I95
I85
tp11
a(I85
I84
tp12
aa(lp13
(I179
I224
tp14
a(I224
I190
tp15
a(I190
I179
tp16
aa(lp17
(I498
I500
tp18
a(I500
I499
tp19
a(I499
I498
tp20
aa(lp21
(I228
I221
tp22
a(I221
I220
tp23
a(I220
I228
tp24
aa(lp25
(I322
I310
tp26
a(I310
I308
tp27
a(I308
I322
tp28
aa(lp29
(I304
I280
tp30
a(I280
I277
tp31
a(I277
I304
tp32
aa(lp33
(I333
I331
tp34
a(I331
I347
tp35
a(I347
I333
tp36
aa(lp37
(I105
I126
tp38
a(I126
I108
tp39
a(I108
I105
tp40
aa(lp41
(I293
I292
tp42
a(I292
I297
tp43
a(I297
I293
tp44
aa(lp45
(I554
I545
tp46
a(I545
I544
tp47
a(I544
I554
tp48
aa(lp49
(I73
I72
tp50
a(I72
I77
tp51
a(I77
I73
tp52
aa(lp53
(I392
I384
tp54
a(I384
I383
tp55
a(I383
I392
tp56
aa(lp57
(I153
I160
tp58
a(I160
I155
tp59
a(I155
I153
tp60
aa(lp61
(I416
I415
tp62
a(I415
I420
tp63
a(I420
I416
tp64
aa(lp65
(I482
I492
tp66
a(I492
I483
tp67
a(I483
I482
tp68
aa(lp69
(I195
I219
tp70
a(I219
I196
tp71
a(I196
I195
tp72
aa(lp73
(I507
I506
tp74
a(I506
I509
tp75
a(I509
I507
tp76
aa(lp77
(I532
I511
tp78
a(I511
I490
tp79
a(I490
I532
tp80
aa(lp81
(I145
I142
tp82
a(I142
I154
tp83
a(I154
I145
tp84
aa(lp85
(I223
I112
tp86
a(I112
I68
tp87
a(I68
I223
tp88
aa(lp89
(I346
I423
tp90
a(I423
I357
tp91
a(I357
I346
tp92
aa(lp93
(I327
I328
tp94
a(I328
I321
tp95
a(I321
I327
tp96
aa(lp97
(I34
I200
tp98
a(I200
I37
tp99
a(I37
I34
tp100
aa(lp101
(I197
I194
tp102
a(I194
I218
tp103
a(I218
I197
tp104
aa(lp105
(I120
I152
tp106
a(I152
I121
tp107
a(I121
I120
tp108
aa(lp109
(I484
I487
tp110
a(I487
I485
tp111
a(I485
I484
tp112
aa(lp113
(I455
I448
tp114
a(I448
I447
tp115
a(I447
I455
tp116
aa(lp117
(I181
I185
tp118
a(I185
I182
tp119
a(I182
I181
tp120
aa(lp121
(I527
I501
tp122
a(I501
I479
tp123
a(I479
I527
tp124
aa(lp125
(I486
I461
tp126
a(I461
I460
tp127
a(I460
I486
tp128
aa(lp129
(I329
I295
tp130
a(I295
I294
tp131
a(I294
I329
tp132
aa(lp133
(I315
I314
tp134
a(I314
I325
tp135
a(I325
I315
tp136
aa(lp137
(I38
I41
tp138
a(I41
I40
tp139
a(I40
I38
tp140
aa(lp141
(I276
I300
tp142
a(I300
I278
tp143
a(I278
I276
tp144
aa(lp145
(I158
I156
tp146
a(I156
I161
tp147
a(I161
I158
tp148
aa(lp149
(I186
I184
tp150
a(I184
I187
tp151
a(I187
I186
tp152
aa(lp153
(I344
I253
tp154
a(I253
I251
tp155
a(I251
I344
tp156
aa(lp157
(I174
I173
tp158
a(I173
I175
tp159
a(I175
I174
tp160
aa(lp161
(I188
I36
tp162
a(I36
I33
tp163
a(I33
I188
tp164
aa(lp165
(I464
I462
tp166
a(I462
I489
tp167
a(I489
I464
tp168
aa(lp169
(I82
I94
tp170
a(I94
I83
tp171
a(I83
I82
tp172
aa(lp173
(I26
I25
tp174
a(I25
I348
tp175
a(I348
I26
tp176
aa(lp177
(I524
I373
tp178
a(I373
I526
tp179
a(I526
I524
tp180
aa(lp181
(I29
I39
tp182
a(I39
I31
tp183
a(I31
I29
tp184
aa(lp185
(I151
I150
tp186
a(I150
I162
tp187
a(I162
I151
tp188
aa(lp189
(I217
I204
tp190
a(I204
I202
tp191
a(I202
I217
tp192
aa(lp193
(I393
I399
tp194
a(I399
I394
tp195
a(I394
I393
tp196
aa(lp197
(I4
I3
tp198
a(I3
I382
tp199
a(I382
I4
tp200
aa(lp201
(I248
I245
tp202
a(I245
I338
tp203
a(I338
I248
tp204
aa(lp205
(I104
I109
tp206
a(I109
I111
tp207
a(I111
I110
tp208
a(I110
I104
tp209
aa(lp210
(I274
I286
tp211
a(I286
I285
tp212
a(I285
I273
tp213
a(I273
I274
tp214
aa(lp215
(I343
I339
tp216
a(I339
I21
tp217
a(I21
I20
tp218
a(I20
I343
tp219
aa(lp220
(I375
I381
tp221
a(I381
I377
tp222
a(I377
I376
tp223
a(I376
I375
tp224
aa(lp225
(I351
I313
tp226
a(I313
I311
tp227
a(I311
I337
tp228
a(I337
I351
tp229
aa(lp230
(I529
I530
tp231
a(I530
I371
tp232
a(I371
I534
tp233
a(I534
I529
tp234
aa(lp235
(I49
I47
tp236
a(I47
I66
tp237
a(I66
I67
tp238
a(I67
I49
tp239
aa(lp240
(I148
I152
tp241
a(I152
I120
tp242
a(I120
I117
tp243
a(I117
I148
tp244
aa(lp245
(I360
I364
tp246
a(I364
I442
tp247
a(I442
I435
tp248
a(I435
I360
tp249
aa(lp250
(I266
I285
tp251
a(I285
I286
tp252
a(I286
I267
tp253
a(I267
I266
tp254
aa(lp255
(I371
I370
tp256
a(I370
I535
tp257
a(I535
I534
tp258
a(I534
I371
tp259
aa(lp260
(I497
I494
tp261
a(I494
I474
tp262
a(I474
I472
tp263
a(I472
I497
tp264
aa(lp265
(I321
I328
tp266
a(I328
I320
tp267
a(I320
I319
tp268
a(I319
I321
tp269
aa(lp270
(I261
I231
tp271
a(I231
I230
tp272
a(I230
I256
tp273
a(I256
I261
tp274
aa(lp275
(I488
I463
tp276
a(I463
I464
tp277
a(I464
I489
tp278
a(I489
I488
tp279
aa(lp280
(I471
I499
tp281
a(I499
I500
tp282
a(I500
I473
tp283
a(I473
I471
tp284
aa(lp285
(I91
I132
tp286
a(I132
I127
tp287
a(I127
I92
tp288
a(I92
I91
tp289
aa(lp290
(I235
I246
tp291
a(I246
I146
tp292
a(I146
I135
tp293
a(I135
I235
tp294
aa(lp295
(I550
I549
tp296
a(I549
I348
tp297
a(I348
I25
tp298
a(I25
I550
tp299
aa(lp300
(I134
I133
tp301
a(I133
I164
tp302
a(I164
I138
tp303
a(I138
I134
tp304
aa(lp305
(I453
I451
tp306
a(I451
I452
tp307
a(I452
I454
tp308
a(I454
I453
tp309
aa(lp310
(I309
I310
tp311
a(I310
I322
tp312
a(I322
I318
tp313
a(I318
I309
tp314
aa(lp315
(I271
I272
tp316
a(I272
I265
tp317
a(I265
I264
tp318
a(I264
I271
tp319
aa(lp320
(I235
I135
tp321
a(I135
I113
tp322
a(I113
I212
tp323
a(I212
I235
tp324
aa(lp325
(I492
I482
tp326
a(I482
I467
tp327
a(I467
I466
tp328
a(I466
I492
tp329
aa(lp330
(I456
I477
tp331
a(I477
I486
tp332
a(I486
I460
tp333
a(I460
I456
tp334
aa(lp335
(I284
I283
tp336
a(I283
I291
tp337
a(I291
I287
tp338
a(I287
I284
tp339
aa(lp340
(I254
I258
tp341
a(I258
I260
tp342
a(I260
I255
tp343
a(I255
I254
tp344
aa(lp345
(I411
I410
tp346
a(I410
I426
tp347
a(I426
I428
tp348
a(I428
I411
tp349
aa(lp350
(I174
I175
tp351
a(I175
I167
tp352
a(I167
I166
tp353
a(I166
I174
tp354
aa(lp355
(I406
I403
tp356
a(I403
I413
tp357
a(I413
I429
tp358
a(I429
I406
tp359
aa(lp360
(I374
I516
tp361
a(I516
I515
tp362
a(I515
I380
tp363
a(I380
I374
tp364
aa(lp365
(I203
I219
tp366
a(I219
I195
tp367
a(I195
I192
tp368
a(I192
I203
tp369
aa(lp370
(I427
I425
tp371
a(I425
I421
tp372
a(I421
I422
tp373
a(I422
I427
tp374
aa(lp375
(I381
I375
tp376
a(I375
I374
tp377
a(I374
I380
tp378
a(I380
I381
tp379
aa(lp380
(I66
I65
tp381
a(I65
I64
tp382
a(I64
I67
tp383
a(I67
I66
tp384
aa(lp385
(I20
I19
tp386
a(I19
I340
tp387
a(I340
I343
tp388
a(I343
I20
tp389
aa(lp390
(I244
I243
tp391
a(I243
I329
tp392
a(I329
I294
tp393
a(I294
I244
tp394
aa(lp395
(I127
I114
tp396
a(I114
I89
tp397
a(I89
I92
tp398
a(I92
I127
tp399
aa(lp400
(I518
I510
tp401
a(I510
I511
tp402
a(I511
I532
tp403
a(I532
I518
tp404
aa(lp405
(I57
I79
tp406
a(I79
I536
tp407
a(I536
I525
tp408
a(I525
I57
tp409
aa(lp410
(I128
I131
tp411
a(I131
I133
tp412
a(I133
I134
tp413
a(I134
I128
tp414
aa(lp415
(I255
I260
tp416
a(I260
I261
tp417
a(I261
I256
tp418
a(I256
I255
tp419
aa(lp420
(I440
I397
tp421
a(I397
I398
tp422
a(I398
I502
tp423
a(I502
I440
tp424
aa(lp425
(I3
I556
tp426
a(I556
I378
tp427
a(I378
I382
tp428
a(I382
I3
tp429
aa(lp430
(I411
I428
tp431
a(I428
I429
tp432
a(I429
I413
tp433
a(I413
I411
tp434
aa(lp435
(I225
I210
tp436
a(I210
I209
tp437
a(I209
I239
tp438
a(I239
I225
tp439
aa(lp440
(I509
I505
tp441
a(I505
I504
tp442
a(I504
I507
tp443
a(I507
I509
tp444
aa(lp445
(I433
I358
tp446
a(I358
I356
tp447
a(I356
I432
tp448
a(I432
I433
tp449
aa(lp450
(I125
I116
tp451
a(I116
I140
tp452
a(I140
I163
tp453
a(I163
I125
tp454
aa(lp455
(I436
I435
tp456
a(I435
I442
tp457
a(I442
I443
tp458
a(I443
I436
tp459
aa(lp460
(I286
I274
tp461
a(I274
I269
tp462
a(I269
I267
tp463
a(I267
I286
tp464
aa(lp465
(I236
I238
tp466
a(I238
I237
tp467
a(I237
I234
tp468
a(I234
I236
tp469
aa(lp470
(I316
I317
tp471
a(I317
I319
tp472
a(I319
I320
tp473
a(I320
I316
tp474
aa(lp475
(I520
I519
tp476
a(I519
I533
tp477
a(I533
I538
tp478
a(I538
I537
tp479
a(I537
I520
tp480
aa(lp481
(I439
I438
tp482
a(I438
I451
tp483
a(I451
I453
tp484
a(I453
I441
tp485
a(I441
I439
tp486
aa(lp487
(I238
I226
tp488
a(I226
I225
tp489
a(I225
I239
tp490
a(I239
I237
tp491
a(I237
I238
tp492
aa(lp493
(I422
I421
tp494
a(I421
I417
tp495
a(I417
I418
tp496
a(I418
I424
tp497
a(I424
I422
tp498
aa(lp499
(I144
I145
tp500
a(I145
I154
tp501
a(I154
I155
tp502
a(I155
I160
tp503
a(I160
I144
tp504
aa(lp505
(I299
I298
tp506
a(I298
I289
tp507
a(I289
I288
tp508
a(I288
I296
tp509
a(I296
I299
tp510
aa(lp511
(I407
I404
tp512
a(I404
I427
tp513
a(I427
I422
tp514
a(I422
I424
tp515
a(I424
I407
tp516
aa(lp517
(I444
I452
tp518
a(I452
I451
tp519
a(I451
I438
tp520
a(I438
I437
tp521
a(I437
I444
tp522
aa(lp523
(I55
I56
tp524
a(I56
I81
tp525
a(I81
I80
tp526
a(I80
I61
tp527
a(I61
I55
tp528
aa(lp529
(I108
I126
tp530
a(I126
I125
tp531
a(I125
I163
tp532
a(I163
I107
tp533
a(I107
I108
tp534
aa(lp535
(I307
I309
tp536
a(I309
I318
tp537
a(I318
I317
tp538
a(I317
I316
tp539
a(I316
I307
tp540
aa(lp541
(I334
I445
tp542
a(I445
I301
tp543
a(I301
I290
tp544
a(I290
I257
tp545
a(I257
I334
tp546
aa(lp547
(I252
I253
tp548
a(I253
I344
tp549
a(I344
I345
tp550
a(I345
I330
tp551
a(I330
I252
tp552
aa(lp553
(I461
I486
tp554
a(I486
I477
tp555
a(I477
I476
tp556
a(I476
I459
tp557
a(I459
I461
tp558
aa(lp559
(I198
I199
tp560
a(I199
I338
tp561
a(I338
I245
tp562
a(I245
I214
tp563
a(I214
I198
tp564
aa(lp565
(I514
I2
tp566
a(I2
I24
tp567
a(I24
I35
tp568
a(I35
I46
tp569
a(I46
I514
tp570
aa(lp571
(I237
I239
tp572
a(I239
I209
tp573
a(I209
I208
tp574
a(I208
I234
tp575
a(I234
I237
tp576
aa(lp577
(I441
I359
tp578
a(I359
I358
tp579
a(I358
I433
tp580
a(I433
I439
tp581
a(I439
I441
tp582
aa(lp583
(I75
I176
tp584
a(I176
I177
tp585
a(I177
I78
tp586
a(I78
I76
tp587
a(I76
I75
tp588
aa(lp589
(I431
I6
tp590
a(I6
I5
tp591
a(I5
I388
tp592
a(I388
I430
tp593
a(I430
I431
tp594
aa(lp595
(I171
I176
tp596
a(I176
I75
tp597
a(I75
I74
tp598
a(I74
I98
tp599
a(I98
I171
tp600
aa(lp601
(I148
I147
tp602
a(I147
I119
tp603
a(I119
I121
tp604
a(I121
I152
tp605
a(I152
I148
tp606
aa(lp607
(I540
I539
tp608
a(I539
I548
tp609
a(I548
I8
tp610
a(I8
I9
tp611
a(I9
I540
tp612
aa(lp613
(I270
I271
tp614
a(I271
I264
tp615
a(I264
I263
tp616
a(I263
I282
tp617
a(I282
I270
tp618
aa(lp619
(I50
I73
tp620
a(I73
I77
tp621
a(I77
I32
tp622
a(I32
I30
tp623
a(I30
I50
tp624
aa(lp625
(I57
I525
tp626
a(I525
I1
tp627
a(I1
I223
tp628
a(I223
I68
tp629
a(I68
I57
tp630
aa(lp631
(I58
I59
tp632
a(I59
I187
tp633
a(I187
I184
tp634
a(I184
I183
tp635
a(I183
I58
tp636
aa(lp637
(I205
I206
tp638
a(I206
I220
tp639
a(I220
I221
tp640
a(I221
I222
tp641
a(I222
I205
tp642
aa(lp643
(I268
I279
tp644
a(I279
I290
tp645
a(I290
I301
tp646
a(I301
I312
tp647
a(I312
I268
tp648
aa(lp649
(I377
I381
tp650
a(I381
I380
tp651
a(I380
I515
tp652
a(I515
I513
tp653
a(I513
I377
tp654
aa(lp655
(I352
I351
tp656
a(I351
I337
tp657
a(I337
I336
tp658
a(I336
I349
tp659
a(I349
I352
tp660
aa(lp661
(I366
I365
tp662
a(I365
I480
tp663
a(I480
I481
tp664
a(I481
I491
tp665
a(I491
I366
tp666
aa(lp667
(I94
I69
tp668
a(I69
I63
tp669
a(I63
I62
tp670
a(I62
I83
tp671
a(I83
I94
tp672
aa(lp673
(I28
I27
tp674
a(I27
I9
tp675
a(I9
I8
tp676
a(I8
I11
tp677
a(I11
I28
tp678
aa(lp679
(I103
I102
tp680
a(I102
I86
tp681
a(I86
I80
tp682
a(I80
I81
tp683
a(I81
I103
tp684
aa(lp685
(I409
I408
tp686
a(I408
I417
tp687
a(I417
I421
tp688
a(I421
I425
tp689
a(I425
I409
tp690
aa(lp691
(I110
I111
tp692
a(I111
I96
tp693
a(I96
I93
tp694
a(I93
I88
tp695
a(I88
I110
tp696
aa(lp697
(I446
I457
tp698
a(I457
I368
tp699
a(I368
I379
tp700
a(I379
I434
tp701
a(I434
I446
tp702
aa(lp703
(I254
I240
tp704
a(I240
I241
tp705
a(I241
I259
tp706
a(I259
I258
tp707
a(I258
I254
tp708
aa(lp709
(I406
I429
tp710
a(I429
I428
tp711
a(I428
I426
tp712
a(I426
I405
tp713
a(I405
I406
tp714
aa(lp715
(I266
I265
tp716
a(I265
I272
tp717
a(I272
I273
tp718
a(I273
I285
tp719
a(I285
I266
tp720
aa(lp721
(I234
I208
tp722
a(I208
I207
tp723
a(I207
I229
tp724
a(I229
I236
tp725
a(I236
I234
tp726
aa(lp727
(I536
I79
tp728
a(I79
I101
tp729
a(I101
I90
tp730
a(I90
I547
tp731
a(I547
I536
tp732
aa(lp733
(I43
I65
tp734
a(I65
I66
tp735
a(I66
I47
tp736
a(I47
I44
tp737
a(I44
I43
tp738
aa(lp739
(I15
I14
tp740
a(I14
I78
tp741
a(I78
I177
tp742
a(I177
I178
tp743
a(I178
I15
tp744
aa(lp745
(I123
I118
tp746
a(I118
I151
tp747
a(I151
I162
tp748
a(I162
I159
tp749
a(I159
I123
tp750
aa(lp751
(I341
I340
tp752
a(I340
I19
tp753
a(I19
I22
tp754
a(I22
I342
tp755
a(I342
I341
tp756
aa(lp757
(I173
I100
tp758
a(I100
I97
tp759
a(I97
I167
tp760
a(I167
I175
tp761
a(I175
I173
tp762
aa(lp763
(I370
I541
tp764
a(I541
I538
tp765
a(I538
I533
tp766
a(I533
I535
tp767
a(I535
I370
tp768
aa(lp769
(I543
I542
tp770
a(I542
I531
tp771
a(I531
I521
tp772
a(I521
I522
tp773
a(I522
I543
tp774
aa(lp775
(I393
I395
tp776
a(I395
I402
tp777
a(I402
I400
tp778
a(I400
I399
tp779
a(I399
I393
tp780
aa(lp781
(I453
I454
tp782
a(I454
I361
tp783
a(I361
I359
tp784
a(I359
I441
tp785
a(I441
I453
tp786
aa(lp787
(I495
I493
tp788
a(I493
I494
tp789
a(I494
I497
tp790
a(I497
I496
tp791
a(I496
I495
tp792
aa(lp793
(I367
I493
tp794
a(I493
I495
tp795
a(I495
I470
tp796
a(I470
I369
tp797
a(I369
I367
tp798
aa(lp799
(I530
I531
tp800
a(I531
I542
tp801
a(I542
I541
tp802
a(I541
I370
tp803
a(I370
I371
tp804
a(I371
I530
tp805
aa(lp806
(I288
I287
tp807
a(I287
I291
tp808
a(I291
I293
tp809
a(I293
I297
tp810
a(I297
I296
tp811
a(I296
I288
tp812
aa(lp813
(I247
I248
tp814
a(I248
I338
tp815
a(I338
I199
tp816
a(I199
I189
tp817
a(I189
I191
tp818
a(I191
I247
tp819
aa(lp820
(I134
I138
tp821
a(I138
I137
tp822
a(I137
I136
tp823
a(I136
I129
tp824
a(I129
I128
tp825
a(I128
I134
tp826
aa(lp827
(I526
I373
tp828
a(I373
I372
tp829
a(I372
I555
tp830
a(I555
I553
tp831
a(I553
I523
tp832
a(I523
I526
tp833
aa(lp834
(I323
I368
tp835
a(I368
I457
tp836
a(I457
I508
tp837
a(I508
I385
tp838
a(I385
I335
tp839
a(I335
I323
tp840
aa(lp841
(I42
I52
tp842
a(I52
I60
tp843
a(I60
I64
tp844
a(I64
I65
tp845
a(I65
I43
tp846
a(I43
I42
tp847
aa(lp848
(I238
I236
tp849
a(I236
I229
tp850
a(I229
I233
tp851
a(I233
I227
tp852
a(I227
I226
tp853
a(I226
I238
tp854
aa(lp855
(I250
I341
tp856
a(I341
I342
tp857
a(I342
I345
tp858
a(I345
I344
tp859
a(I344
I251
tp860
a(I251
I250
tp861
aa(lp862
(I354
I355
tp863
a(I355
I353
tp864
a(I353
I352
tp865
a(I352
I349
tp866
a(I349
I350
tp867
a(I350
I354
tp868
aa(lp869
(I191
I189
tp870
a(I189
I188
tp871
a(I188
I33
tp872
a(I33
I17
tp873
a(I17
I18
tp874
a(I18
I191
tp875
aa(lp876
(I419
I420
tp877
a(I420
I415
tp878
a(I415
I414
tp879
a(I414
I431
tp880
a(I431
I430
tp881
a(I430
I419
tp882
aa(lp883
(I56
I58
tp884
a(I58
I183
tp885
a(I183
I170
tp886
a(I170
I103
tp887
a(I103
I81
tp888
a(I81
I56
tp889
aa(lp890
(I46
I412
tp891
a(I412
I423
tp892
a(I423
I346
tp893
a(I346
I13
tp894
a(I13
I514
tp895
a(I514
I46
tp896
aa(lp897
(I341
I250
tp898
a(I250
I249
tp899
a(I249
I339
tp900
a(I339
I343
tp901
a(I343
I340
tp902
a(I340
I341
tp903
aa(lp904
(I544
I543
tp905
a(I543
I522
tp906
a(I522
I523
tp907
a(I523
I553
tp908
a(I553
I554
tp909
a(I554
I544
tp910
aa(lp911
(I148
I117
tp912
a(I117
I115
tp913
a(I115
I130
tp914
a(I130
I141
tp915
a(I141
I147
tp916
a(I147
I148
tp917
aa(lp918
(I202
I216
tp919
a(I216
I193
tp920
a(I193
I197
tp921
a(I197
I218
tp922
a(I218
I217
tp923
a(I217
I202
tp924
aa(lp925
(I159
I162
tp926
a(I162
I150
tp927
a(I150
I149
tp928
a(I149
I161
tp929
a(I161
I156
tp930
a(I156
I159
tp931
aa(lp932
(I1
I0
tp933
a(I0
I445
tp934
a(I445
I334
tp935
a(I334
I112
tp936
a(I112
I223
tp937
a(I223
I1
tp938
aa(lp939
(I140
I116
tp940
a(I116
I122
tp941
a(I122
I139
tp942
a(I139
I136
tp943
a(I136
I137
tp944
a(I137
I140
tp945
aa(lp946
(I302
I303
tp947
a(I303
I304
tp948
a(I304
I277
tp949
a(I277
I278
tp950
a(I278
I300
tp951
a(I300
I302
tp952
aa(lp953
(I176
I171
tp954
a(I171
I172
tp955
a(I172
I180
tp956
a(I180
I178
tp957
a(I178
I177
tp958
a(I177
I176
tp959
aa(lp960
(I42
I45
tp961
a(I45
I53
tp962
a(I53
I54
tp963
a(I54
I51
tp964
a(I51
I52
tp965
a(I52
I42
tp966
aa(lp967
(I489
I462
tp968
a(I462
I458
tp969
a(I458
I485
tp970
a(I485
I487
tp971
a(I487
I488
tp972
a(I488
I489
tp973
aa(lp974
(I306
I305
tp975
a(I305
I303
tp976
a(I303
I302
tp977
a(I302
I298
tp978
a(I298
I299
tp979
a(I299
I306
tp980
aa(lp981
(I165
I99
tp982
a(I99
I100
tp983
a(I100
I173
tp984
a(I173
I174
tp985
a(I174
I166
tp986
a(I166
I165
tp987
aa(lp988
(I481
I483
tp989
a(I483
I492
tp990
a(I492
I466
tp991
a(I466
I469
tp992
a(I469
I491
tp993
a(I491
I481
tp994
aa(lp995
(I58
I56
tp996
a(I56
I55
tp997
a(I55
I51
tp998
a(I51
I54
tp999
a(I54
I59
tp1000
a(I59
I58
tp1001
aa(lp1002
(I552
I350
tp1003
a(I350
I349
tp1004
a(I349
I336
tp1005
a(I336
I332
tp1006
a(I332
I551
tp1007
a(I551
I552
tp1008
aa(lp1009
(I172
I171
tp1010
a(I171
I98
tp1011
a(I98
I99
tp1012
a(I99
I165
tp1013
a(I165
I169
tp1014
a(I169
I172
tp1015
aa(lp1016
(I94
I82
tp1017
a(I82
I85
tp1018
a(I85
I95
tp1019
a(I95
I70
tp1020
a(I70
I69
tp1021
a(I69
I94
tp1022
aa(lp1023
(I300
I276
tp1024
a(I276
I275
tp1025
a(I275
I289
tp1026
a(I289
I298
tp1027
a(I298
I302
tp1028
a(I302
I300
tp1029
aa(lp1030
(I420
I419
tp1031
a(I419
I418
tp1032
a(I418
I417
tp1033
a(I417
I408
tp1034
a(I408
I416
tp1035
a(I416
I420
tp1036
aa(lp1037
(I500
I498
tp1038
a(I498
I496
tp1039
a(I496
I497
tp1040
a(I497
I472
tp1041
a(I472
I473
tp1042
a(I473
I500
tp1043
aa(lp1044
(I471
I470
tp1045
a(I470
I495
tp1046
a(I495
I496
tp1047
a(I496
I498
tp1048
a(I498
I499
tp1049
a(I499
I471
tp1050
aa(lp1051
(I247
I191
tp1052
a(I191
I18
tp1053
a(I18
I21
tp1054
a(I21
I339
tp1055
a(I339
I249
tp1056
a(I249
I247
tp1057
aa(lp1058
(I256
I230
tp1059
a(I230
I213
tp1060
a(I213
I211
tp1061
a(I211
I240
tp1062
a(I240
I254
tp1063
a(I254
I255
tp1064
a(I255
I256
tp1065
aa(lp1066
(I38
I40
tp1067
a(I40
I39
tp1068
a(I39
I29
tp1069
a(I29
I28
tp1070
a(I28
I11
tp1071
a(I11
I12
tp1072
a(I12
I38
tp1073
aa(lp1074
(I275
I270
tp1075
a(I270
I282
tp1076
a(I282
I284
tp1077
a(I284
I287
tp1078
a(I287
I288
tp1079
a(I288
I289
tp1080
a(I289
I275
tp1081
aa(lp1082
(I32
I77
tp1083
a(I77
I72
tp1084
a(I72
I76
tp1085
a(I76
I78
tp1086
a(I78
I14
tp1087
a(I14
I10
tp1088
a(I10
I32
tp1089
aa(lp1090
(I465
I475
tp1091
a(I475
I476
tp1092
a(I476
I477
tp1093
a(I477
I456
tp1094
a(I456
I450
tp1095
a(I450
I449
tp1096
a(I449
I465
tp1097
aa(lp1098
(I527
I528
tp1099
a(I528
I517
tp1100
a(I517
I518
tp1101
a(I518
I532
tp1102
a(I532
I490
tp1103
a(I490
I501
tp1104
a(I501
I527
tp1105
aa(lp1106
(I190
I224
tp1107
a(I224
I212
tp1108
a(I212
I113
tp1109
a(I113
I90
tp1110
a(I90
I101
tp1111
a(I101
I168
tp1112
a(I168
I190
tp1113
aa(lp1114
(I226
I227
tp1115
a(I227
I228
tp1116
a(I228
I220
tp1117
a(I220
I206
tp1118
a(I206
I210
tp1119
a(I210
I225
tp1120
a(I225
I226
tp1121
aa(lp1122
(I235
I212
tp1123
a(I212
I224
tp1124
a(I224
I179
tp1125
a(I179
I124
tp1126
a(I124
I157
tp1127
a(I157
I246
tp1128
a(I246
I235
tp1129
aa(lp1130
(I458
I459
tp1131
a(I459
I476
tp1132
a(I476
I475
tp1133
a(I475
I478
tp1134
a(I478
I484
tp1135
a(I484
I485
tp1136
a(I485
I458
tp1137
aa(lp1138
(I107
I163
tp1139
a(I163
I140
tp1140
a(I140
I137
tp1141
a(I137
I138
tp1142
a(I138
I164
tp1143
a(I164
I106
tp1144
a(I106
I107
tp1145
aa(lp1146
(I283
I284
tp1147
a(I284
I282
tp1148
a(I282
I263
tp1149
a(I263
I259
tp1150
a(I259
I241
tp1151
a(I241
I242
tp1152
a(I242
I283
tp1153
aa(lp1154
(I213
I230
tp1155
a(I230
I231
tp1156
a(I231
I232
tp1157
a(I232
I233
tp1158
a(I233
I229
tp1159
a(I229
I207
tp1160
a(I207
I213
tp1161
aa(lp1162
(I446
I434
tp1163
a(I434
I510
tp1164
a(I510
I518
tp1165
a(I518
I517
tp1166
a(I517
I519
tp1167
a(I519
I520
tp1168
a(I520
I446
tp1169
aa(lp1170
(I389
I391
tp1171
a(I391
I504
tp1172
a(I504
I505
tp1173
a(I505
I503
tp1174
a(I503
I502
tp1175
a(I502
I398
tp1176
a(I398
I389
tp1177
aa(lp1178
(I60
I52
tp1179
a(I52
I51
tp1180
a(I51
I55
tp1181
a(I55
I61
tp1182
a(I61
I62
tp1183
a(I62
I63
tp1184
a(I63
I60
tp1185
aa(lp1186
(I519
I517
tp1187
a(I517
I528
tp1188
a(I528
I529
tp1189
a(I529
I534
tp1190
a(I534
I535
tp1191
a(I535
I533
tp1192
a(I533
I519
tp1193
aa(lp1194
(I35
I24
tp1195
a(I24
I124
tp1196
a(I124
I179
tp1197
a(I179
I190
tp1198
a(I190
I168
tp1199
a(I168
I201
tp1200
a(I201
I35
tp1201
aa(lp1202
(I330
I345
tp1203
a(I345
I342
tp1204
a(I342
I22
tp1205
a(I22
I23
tp1206
a(I23
I347
tp1207
a(I347
I331
tp1208
a(I331
I330
tp1209
aa(lp1210
(I522
I521
tp1211
a(I521
I468
tp1212
a(I468
I512
tp1213
a(I512
I524
tp1214
a(I524
I526
tp1215
a(I526
I523
tp1216
a(I523
I522
tp1217
aa(lp1218
(I418
I419
tp1219
a(I419
I430
tp1220
a(I430
I388
tp1221
a(I388
I387
tp1222
a(I387
I407
tp1223
a(I407
I424
tp1224
a(I424
I418
tp1225
aa(lp1226
(I106
I164
tp1227
a(I164
I133
tp1228
a(I133
I131
tp1229
a(I131
I132
tp1230
a(I132
I91
tp1231
a(I91
I87
tp1232
a(I87
I106
tp1233
aa(lp1234
(I427
I404
tp1235
a(I404
I405
tp1236
a(I405
I426
tp1237
a(I426
I410
tp1238
a(I410
I409
tp1239
a(I409
I425
tp1240
a(I425
I427
tp1241
aa(lp1242
(I469
I474
tp1243
a(I474
I494
tp1244
a(I494
I493
tp1245
a(I493
I367
tp1246
a(I367
I366
tp1247
a(I366
I491
tp1248
a(I491
I469
tp1249
aa(lp1250
(I219
I203
tp1251
a(I203
I204
tp1252
a(I204
I217
tp1253
a(I217
I218
tp1254
a(I218
I194
tp1255
a(I194
I196
tp1256
a(I196
I219
tp1257
aa(lp1258
(I59
I54
tp1259
a(I54
I53
tp1260
a(I53
I182
tp1261
a(I182
I185
tp1262
a(I185
I186
tp1263
a(I186
I187
tp1264
a(I187
I59
tp1265
aa(lp1266
(I158
I161
tp1267
a(I161
I149
tp1268
a(I149
I143
tp1269
a(I143
I144
tp1270
a(I144
I160
tp1271
a(I160
I153
tp1272
a(I153
I158
tp1273
aa(lp1274
(I448
I455
tp1275
a(I455
I362
tp1276
a(I362
I361
tp1277
a(I361
I454
tp1278
a(I454
I452
tp1279
a(I452
I444
tp1280
a(I444
I448
tp1281
aa(lp1282
(I23
I26
tp1283
a(I26
I348
tp1284
a(I348
I549
tp1285
a(I549
I551
tp1286
a(I551
I332
tp1287
a(I332
I333
tp1288
a(I333
I347
tp1289
a(I347
I23
tp1290
aa(lp1291
(I525
I536
tp1292
a(I536
I547
tp1293
a(I547
I2
tp1294
a(I2
I514
tp1295
a(I514
I13
tp1296
a(I13
I0
tp1297
a(I0
I1
tp1298
a(I1
I525
tp1299
aa(lp1300
(I43
I44
tp1301
a(I44
I41
tp1302
a(I41
I38
tp1303
a(I38
I12
tp1304
a(I12
I16
tp1305
a(I16
I45
tp1306
a(I45
I42
tp1307
a(I42
I43
tp1308
aa(lp1309
(I71
I74
tp1310
a(I74
I75
tp1311
a(I75
I76
tp1312
a(I76
I72
tp1313
a(I72
I73
tp1314
a(I73
I50
tp1315
a(I50
I48
tp1316
a(I48
I71
tp1317
aa(lp1318
(I521
I531
tp1319
a(I531
I530
tp1320
a(I530
I529
tp1321
a(I529
I528
tp1322
a(I528
I527
tp1323
a(I527
I479
tp1324
a(I479
I468
tp1325
a(I468
I521
tp1326
aa(lp1327
(I132
I131
tp1328
a(I131
I128
tp1329
a(I128
I129
tp1330
a(I129
I130
tp1331
a(I130
I115
tp1332
a(I115
I114
tp1333
a(I114
I127
tp1334
a(I127
I132
tp1335
aa(lp1336
(I488
I487
tp1337
a(I487
I484
tp1338
a(I484
I478
tp1339
a(I478
I480
tp1340
a(I480
I365
tp1341
a(I365
I363
tp1342
a(I363
I463
tp1343
a(I463
I488
tp1344
aa(lp1345
(I386
I389
tp1346
a(I389
I398
tp1347
a(I398
I397
tp1348
a(I397
I396
tp1349
a(I396
I395
tp1350
a(I395
I393
tp1351
a(I393
I394
tp1352
a(I394
I386
tp1353
aa(lp1354
(I376
I372
tp1355
a(I372
I373
tp1356
a(I373
I524
tp1357
a(I524
I512
tp1358
a(I512
I516
tp1359
a(I516
I374
tp1360
a(I374
I375
tp1361
a(I375
I376
tp1362
aa(lp1363
(I444
I437
tp1364
a(I437
I436
tp1365
a(I436
I443
tp1366
a(I443
I449
tp1367
a(I449
I450
tp1368
a(I450
I447
tp1369
a(I447
I448
tp1370
a(I448
I444
tp1371
aa(lp1372
(I323
I357
tp1373
a(I357
I423
tp1374
a(I423
I412
tp1375
a(I412
I401
tp1376
a(I401
I390
tp1377
a(I390
I379
tp1378
a(I379
I368
tp1379
a(I368
I323
tp1380
aa(lp1381
(I504
I391
tp1382
a(I391
I392
tp1383
a(I392
I383
tp1384
a(I383
I385
tp1385
a(I385
I508
tp1386
a(I508
I506
tp1387
a(I506
I507
tp1388
a(I507
I504
tp1389
aa(lp1390
(I181
I182
tp1391
a(I182
I53
tp1392
a(I53
I45
tp1393
a(I45
I16
tp1394
a(I16
I15
tp1395
a(I15
I178
tp1396
a(I178
I180
tp1397
a(I180
I181
tp1398
aa(lp1399
(I151
I118
tp1400
a(I118
I119
tp1401
a(I119
I147
tp1402
a(I147
I141
tp1403
a(I141
I143
tp1404
a(I143
I149
tp1405
a(I149
I150
tp1406
a(I150
I151
tp1407
aa(lp1408
(I465
I467
tp1409
a(I467
I482
tp1410
a(I482
I483
tp1411
a(I483
I481
tp1412
a(I481
I480
tp1413
a(I480
I478
tp1414
a(I478
I475
tp1415
a(I475
I465
tp1416
aa(lp1417
(I293
I291
tp1418
a(I291
I283
tp1419
a(I283
I242
tp1420
a(I242
I244
tp1421
a(I244
I294
tp1422
a(I294
I295
tp1423
a(I295
I292
tp1424
a(I292
I293
tp1425
aa(lp1426
(I71
I48
tp1427
a(I48
I49
tp1428
a(I49
I67
tp1429
a(I67
I64
tp1430
a(I64
I60
tp1431
a(I60
I63
tp1432
a(I63
I69
tp1433
a(I69
I70
tp1434
a(I70
I71
tp1435
aa(lp1436
(I172
I169
tp1437
a(I169
I170
tp1438
a(I170
I183
tp1439
a(I183
I184
tp1440
a(I184
I186
tp1441
a(I186
I185
tp1442
a(I185
I181
tp1443
a(I181
I180
tp1444
a(I180
I172
tp1445
aa(lp1446
(I6
I431
tp1447
a(I431
I414
tp1448
a(I414
I402
tp1449
a(I402
I395
tp1450
a(I395
I396
tp1451
a(I396
I432
tp1452
a(I432
I356
tp1453
a(I356
I7
tp1454
a(I7
I6
tp1455
aa(lp1456
(I144
I143
tp1457
a(I143
I141
tp1458
a(I141
I130
tp1459
a(I130
I129
tp1460
a(I129
I136
tp1461
a(I136
I139
tp1462
a(I139
I142
tp1463
a(I142
I145
tp1464
a(I145
I144
tp1465
aa(lp1466
(I108
I107
tp1467
a(I107
I106
tp1468
a(I106
I87
tp1469
a(I87
I86
tp1470
a(I86
I102
tp1471
a(I102
I109
tp1472
a(I109
I104
tp1473
a(I104
I105
tp1474
a(I105
I108
tp1475
aa(lp1476
(I124
I24
tp1477
a(I24
I2
tp1478
a(I2
I547
tp1479
a(I547
I90
tp1480
a(I90
I113
tp1481
a(I113
I135
tp1482
a(I135
I146
tp1483
a(I146
I157
tp1484
a(I157
I124
tp1485
aa(lp1486
(I392
I391
tp1487
a(I391
I389
tp1488
a(I389
I386
tp1489
a(I386
I387
tp1490
a(I387
I388
tp1491
a(I388
I5
tp1492
a(I5
I557
tp1493
a(I557
I384
tp1494
a(I384
I392
tp1495
aa(lp1496
(I513
I390
tp1497
a(I390
I401
tp1498
a(I401
I378
tp1499
a(I378
I556
tp1500
a(I556
I555
tp1501
a(I555
I372
tp1502
a(I372
I376
tp1503
a(I376
I377
tp1504
a(I377
I513
tp1505
aa(lp1506
(I301
I445
tp1507
a(I445
I0
tp1508
a(I0
I13
tp1509
a(I13
I346
tp1510
a(I346
I357
tp1511
a(I357
I323
tp1512
a(I323
I335
tp1513
a(I335
I312
tp1514
a(I312
I301
tp1515
aa(lp1516
(I505
I509
tp1517
a(I509
I506
tp1518
a(I506
I508
tp1519
a(I508
I457
tp1520
a(I457
I446
tp1521
a(I446
I520
tp1522
a(I520
I537
tp1523
a(I537
I546
tp1524
a(I546
I503
tp1525
a(I503
I505
tp1526
aa(lp1527
(I541
I542
tp1528
a(I542
I543
tp1529
a(I543
I544
tp1530
a(I544
I545
tp1531
a(I545
I539
tp1532
a(I539
I540
tp1533
a(I540
I546
tp1534
a(I546
I537
tp1535
a(I537
I538
tp1536
a(I538
I541
tp1537
aa(lp1538
(I221
I228
tp1539
a(I228
I227
tp1540
a(I227
I233
tp1541
a(I233
I232
tp1542
a(I232
I262
tp1543
a(I262
I281
tp1544
a(I281
I326
tp1545
a(I326
I324
tp1546
a(I324
I222
tp1547
a(I222
I221
tp1548
aa(lp1549
(I47
I49
tp1550
a(I49
I48
tp1551
a(I48
I50
tp1552
a(I50
I30
tp1553
a(I30
I31
tp1554
a(I31
I39
tp1555
a(I39
I40
tp1556
a(I40
I41
tp1557
a(I41
I44
tp1558
a(I44
I47
tp1559
aa(lp1560
(I154
I142
tp1561
a(I142
I139
tp1562
a(I139
I122
tp1563
a(I122
I123
tp1564
a(I123
I159
tp1565
a(I159
I156
tp1566
a(I156
I158
tp1567
a(I158
I153
tp1568
a(I153
I155
tp1569
a(I155
I154
tp1570
aa(lp1571
(I307
I305
tp1572
a(I305
I306
tp1573
a(I306
I311
tp1574
a(I311
I313
tp1575
a(I313
I314
tp1576
a(I314
I315
tp1577
a(I315
I308
tp1578
a(I308
I310
tp1579
a(I310
I309
tp1580
a(I309
I307
tp1581
aa(lp1582
(I403
I406
tp1583
a(I406
I405
tp1584
a(I405
I404
tp1585
a(I404
I407
tp1586
a(I407
I387
tp1587
a(I387
I386
tp1588
a(I386
I394
tp1589
a(I394
I399
tp1590
a(I399
I400
tp1591
a(I400
I403
tp1592
aa(lp1593
(I352
I353
tp1594
a(I353
I215
tp1595
a(I215
I205
tp1596
a(I205
I222
tp1597
a(I222
I324
tp1598
a(I324
I325
tp1599
a(I325
I314
tp1600
a(I314
I313
tp1601
a(I313
I351
tp1602
a(I351
I352
tp1603
aa(lp1604
(I319
I317
tp1605
a(I317
I318
tp1606
a(I318
I322
tp1607
a(I322
I308
tp1608
a(I308
I315
tp1609
a(I315
I325
tp1610
a(I325
I324
tp1611
a(I324
I326
tp1612
a(I326
I327
tp1613
a(I327
I321
tp1614
a(I321
I319
tp1615
aa(lp1616
(I320
I328
tp1617
a(I328
I327
tp1618
a(I327
I326
tp1619
a(I326
I281
tp1620
a(I281
I280
tp1621
a(I280
I304
tp1622
a(I304
I303
tp1623
a(I303
I305
tp1624
a(I305
I307
tp1625
a(I307
I316
tp1626
a(I316
I320
tp1627
aa(lp1628
(I403
I400
tp1629
a(I400
I402
tp1630
a(I402
I414
tp1631
a(I414
I415
tp1632
a(I415
I416
tp1633
a(I416
I408
tp1634
a(I408
I409
tp1635
a(I409
I410
tp1636
a(I410
I411
tp1637
a(I411
I413
tp1638
a(I413
I403
tp1639
aa(lp1640
(I101
I79
tp1641
a(I79
I57
tp1642
a(I57
I68
tp1643
a(I68
I112
tp1644
a(I112
I334
tp1645
a(I334
I257
tp1646
a(I257
I279
tp1647
a(I279
I268
tp1648
a(I268
I201
tp1649
a(I201
I168
tp1650
a(I168
I101
tp1651
aa(lp1652
(I96
I111
tp1653
a(I111
I109
tp1654
a(I109
I102
tp1655
a(I102
I103
tp1656
a(I103
I170
tp1657
a(I170
I169
tp1658
a(I169
I165
tp1659
a(I165
I166
tp1660
a(I166
I167
tp1661
a(I167
I97
tp1662
a(I97
I96
tp1663
aa(lp1664
(I93
I96
tp1665
a(I96
I97
tp1666
a(I97
I100
tp1667
a(I100
I99
tp1668
a(I99
I98
tp1669
a(I98
I74
tp1670
a(I74
I71
tp1671
a(I71
I70
tp1672
a(I70
I95
tp1673
a(I95
I84
tp1674
a(I84
I93
tp1675
aa(lp1676
(I36
I34
tp1677
a(I34
I37
tp1678
a(I37
I27
tp1679
a(I27
I28
tp1680
a(I28
I29
tp1681
a(I29
I31
tp1682
a(I31
I30
tp1683
a(I30
I32
tp1684
a(I32
I10
tp1685
a(I10
I17
tp1686
a(I17
I33
tp1687
a(I33
I36
tp1688
aa(lp1689
(I510
I434
tp1690
a(I434
I379
tp1691
a(I379
I390
tp1692
a(I390
I513
tp1693
a(I513
I515
tp1694
a(I515
I516
tp1695
a(I516
I512
tp1696
a(I512
I468
tp1697
a(I468
I479
tp1698
a(I479
I501
tp1699
a(I501
I490
tp1700
a(I490
I511
tp1701
a(I511
I510
tp1702
aa(lp1703
(I397
I440
tp1704
a(I440
I355
tp1705
a(I355
I354
tp1706
a(I354
I360
tp1707
a(I360
I435
tp1708
a(I435
I436
tp1709
a(I436
I437
tp1710
a(I437
I438
tp1711
a(I438
I439
tp1712
a(I439
I433
tp1713
a(I433
I432
tp1714
a(I432
I396
tp1715
a(I396
I397
tp1716
aa(lp1717
(I262
I269
tp1718
a(I269
I274
tp1719
a(I274
I273
tp1720
a(I273
I272
tp1721
a(I272
I271
tp1722
a(I271
I270
tp1723
a(I270
I275
tp1724
a(I275
I276
tp1725
a(I276
I278
tp1726
a(I278
I277
tp1727
a(I277
I280
tp1728
a(I280
I281
tp1729
a(I281
I262
tp1730
aa(lp1731
(I198
I192
tp1732
a(I192
I195
tp1733
a(I195
I196
tp1734
a(I196
I194
tp1735
a(I194
I197
tp1736
a(I197
I193
tp1737
a(I193
I200
tp1738
a(I200
I34
tp1739
a(I34
I36
tp1740
a(I36
I188
tp1741
a(I188
I189
tp1742
a(I189
I199
tp1743
a(I199
I198
tp1744
aa(lp1745
(I458
I462
tp1746
a(I462
I464
tp1747
a(I464
I463
tp1748
a(I463
I363
tp1749
a(I363
I362
tp1750
a(I362
I455
tp1751
a(I455
I447
tp1752
a(I447
I450
tp1753
a(I450
I456
tp1754
a(I456
I460
tp1755
a(I460
I461
tp1756
a(I461
I459
tp1757
a(I459
I458
tp1758
aa(lp1759
(I259
I263
tp1760
a(I263
I264
tp1761
a(I264
I265
tp1762
a(I265
I266
tp1763
a(I266
I267
tp1764
a(I267
I269
tp1765
a(I269
I262
tp1766
a(I262
I232
tp1767
a(I232
I231
tp1768
a(I231
I261
tp1769
a(I261
I260
tp1770
a(I260
I258
tp1771
a(I258
I259
tp1772
aa(lp1773
(I442
I364
tp1774
a(I364
I369
tp1775
a(I369
I470
tp1776
a(I470
I471
tp1777
a(I471
I473
tp1778
a(I473
I472
tp1779
a(I472
I474
tp1780
a(I474
I469
tp1781
a(I469
I466
tp1782
a(I466
I467
tp1783
a(I467
I465
tp1784
a(I465
I449
tp1785
a(I449
I443
tp1786
a(I443
I442
tp1787
aa(lp1788
(I88
I93
tp1789
a(I93
I84
tp1790
a(I84
I85
tp1791
a(I85
I82
tp1792
a(I82
I83
tp1793
a(I83
I62
tp1794
a(I62
I61
tp1795
a(I61
I80
tp1796
a(I80
I86
tp1797
a(I86
I87
tp1798
a(I87
I91
tp1799
a(I91
I92
tp1800
a(I92
I89
tp1801
a(I89
I88
tp1802
aa(lp1803
(I9
I27
tp1804
a(I27
I37
tp1805
a(I37
I200
tp1806
a(I200
I193
tp1807
a(I193
I216
tp1808
a(I216
I215
tp1809
a(I215
I353
tp1810
a(I353
I355
tp1811
a(I355
I440
tp1812
a(I440
I502
tp1813
a(I502
I503
tp1814
a(I503
I546
tp1815
a(I546
I540
tp1816
a(I540
I9
tp1817
aa(lp1818
(I243
I244
tp1819
a(I244
I242
tp1820
a(I242
I241
tp1821
a(I241
I240
tp1822
a(I240
I211
tp1823
a(I211
I214
tp1824
a(I214
I245
tp1825
a(I245
I248
tp1826
a(I248
I247
tp1827
a(I247
I249
tp1828
a(I249
I250
tp1829
a(I250
I251
tp1830
a(I251
I253
tp1831
a(I253
I252
tp1832
a(I252
I243
tp1833
aa(lp1834
(I335
I385
tp1835
a(I385
I383
tp1836
a(I383
I384
tp1837
a(I384
I557
tp1838
a(I557
I4
tp1839
a(I4
I382
tp1840
a(I382
I378
tp1841
a(I378
I401
tp1842
a(I401
I412
tp1843
a(I412
I46
tp1844
a(I46
I35
tp1845
a(I35
I201
tp1846
a(I201
I268
tp1847
a(I268
I312
tp1848
a(I312
I335
tp1849
aa(lp1850
(I297
I292
tp1851
a(I292
I295
tp1852
a(I295
I329
tp1853
a(I329
I243
tp1854
a(I243
I252
tp1855
a(I252
I330
tp1856
a(I330
I331
tp1857
a(I331
I333
tp1858
a(I333
I332
tp1859
a(I332
I336
tp1860
a(I336
I337
tp1861
a(I337
I311
tp1862
a(I311
I306
tp1863
a(I306
I299
tp1864
a(I299
I296
tp1865
a(I296
I297
tp1866
aa(lp1867
(I202
I204
tp1868
a(I204
I203
tp1869
a(I203
I192
tp1870
a(I192
I198
tp1871
a(I198
I214
tp1872
a(I214
I211
tp1873
a(I211
I213
tp1874
a(I213
I207
tp1875
a(I207
I208
tp1876
a(I208
I209
tp1877
a(I209
I210
tp1878
a(I210
I206
tp1879
a(I206
I205
tp1880
a(I205
I215
tp1881
a(I215
I216
tp1882
a(I216
I202
tp1883
aa(lp1884
(I552
I7
tp1885
a(I7
I356
tp1886
a(I356
I358
tp1887
a(I358
I359
tp1888
a(I359
I361
tp1889
a(I361
I362
tp1890
a(I362
I363
tp1891
a(I363
I365
tp1892
a(I365
I366
tp1893
a(I366
I367
tp1894
a(I367
I369
tp1895
a(I369
I364
tp1896
a(I364
I360
tp1897
a(I360
I354
tp1898
a(I354
I350
tp1899
a(I350
I552
tp1900
aa(lp1901
(I116
I125
tp1902
a(I125
I126
tp1903
a(I126
I105
tp1904
a(I105
I104
tp1905
a(I104
I110
tp1906
a(I110
I88
tp1907
a(I88
I89
tp1908
a(I89
I114
tp1909
a(I114
I115
tp1910
a(I115
I117
tp1911
a(I117
I120
tp1912
a(I120
I121
tp1913
a(I121
I119
tp1914
a(I119
I118
tp1915
a(I118
I123
tp1916
a(I123
I122
tp1917
a(I122
I116
tp1918
aa(lp1919
(I548
I539
tp1920
a(I539
I545
tp1921
a(I545
I554
tp1922
a(I554
I553
tp1923
a(I553
I555
tp1924
a(I555
I556
tp1925
a(I556
I3
tp1926
a(I3
I4
tp1927
a(I4
I557
tp1928
a(I557
I5
tp1929
a(I5
I6
tp1930
a(I6
I7
tp1931
a(I7
I552
tp1932
a(I552
I551
tp1933
a(I551
I549
tp1934
a(I549
I550
tp1935
a(I550
I548
tp1936
aa(lp1937
(I26
I23
tp1938
a(I23
I22
tp1939
a(I22
I19
tp1940
a(I19
I20
tp1941
a(I20
I21
tp1942
a(I21
I18
tp1943
a(I18
I17
tp1944
a(I17
I10
tp1945
a(I10
I14
tp1946
a(I14
I15
tp1947
a(I15
I16
tp1948
a(I16
I12
tp1949
a(I12
I11
tp1950
a(I11
I8
tp1951
a(I8
I548
tp1952
a(I548
I550
tp1953
a(I550
I25
tp1954
a(I25
I26
tp1955
aa.