(lp0
(lp1
(I335
I380
tp2
a(I380
I357
tp3
a(I357
I335
tp4
aa(lp5
(I395
I370
tp6
a(I370
I368
tp7
a(I368
I395
tp8
aa(lp9
(I108
I105
tp10
a(I105
I121
tp11
a(I121
I108
tp12
aa(lp13
(I56
I58
tp14
a(I58
I50
tp15
a(I50
I56
tp16
aa(lp17
(I151
I96
tp18
a(I96
I94
tp19
a(I94
I151
tp20
aa(lp21
(I406
I409
tp22
a(I409
I426
tp23
a(I426
I406
tp24
aa(lp25
(I369
I411
tp26
a(I411
I372
tp27
a(I372
I369
tp28
aa(lp29
(I322
I319
tp30
a(I319
I331
tp31
a(I331
I322
tp32
aa(lp33
(I101
I79
tp34
a(I79
I57
tp35
a(I57
I101
tp36
aa(lp37
(I205
I203
tp38
a(I203
I206
tp39
a(I206
I205
tp40
aa(lp41
(I164
I161
tp42
a(I161
I159
tp43
a(I159
I164
tp44
aa(lp45
(I358
I353
tp46
a(I353
I352
tp47
a(I352
I358
tp48
aa(lp49
(I251
I250
tp50
a(I250
I259
tp51
a(I259
I251
tp52
aa(lp53
(I12
I7
tp54
a(I7
I5
tp55
a(I5
I12
tp56
aa(lp57
(I55
I54
tp58
a(I54
I180
tp59
a(I180
I55
tp60
aa(lp61
(I222
I244
tp62
a(I244
I226
tp63
a(I226
I222
tp64
aa(lp65
(I393
I390
tp66
a(I390
I389
tp67
a(I389
I393
tp68
aa(lp69
(I65
I63
tp70
a(I63
I72
tp71
a(I72
I65
tp72
aa(lp73
(I81
I355
tp74
a(I355
I83
tp75
a(I83
I81
tp76
aa(lp77
(I325
I303
tp78
a(I303
I300
tp79
a(I300
I325
tp80
aa(lp81
(I149
I156
tp82
a(I156
I150
tp83
a(I150
I149
tp84
aa(lp85
(I429
I424
tp86
a(I424
I420
tp87
a(I420
I429
tp88
aa(lp89
(I144
I280
tp90
a(I280
I145
tp91
a(I145
I144
tp92
aa(lp93
(I366
I364
tp94
a(I364
I367
tp95
a(I367
I366
tp96
aa(lp97
(I249
I248
tp98
a(I248
I255
tp99
a(I255
I249
tp100
aa(lp101
(I143
I217
tp102
a(I217
I147
tp103
a(I147
I143
tp104
aa(lp105
(I387
I20
tp106
a(I20
I388
tp107
a(I388
I387
tp108
aa(lp109
(I293
I282
tp110
a(I282
I281
tp111
a(I281
I293
tp112
aa(lp113
(I323
I376
tp114
a(I376
I377
tp115
a(I377
I323
tp116
aa(lp117
(I229
I228
tp118
a(I228
I237
tp119
a(I237
I229
tp120
aa(lp121
(I311
I341
tp122
a(I341
I314
tp123
a(I314
I311
tp124
aa(lp125
(I44
I48
tp126
a(I48
I49
tp127
a(I49
I44
tp128
aa(lp129
(I127
I126
tp130
a(I126
I130
tp131
a(I130
I127
tp132
aa(lp133
(I117
I110
tp134
a(I110
I118
tp135
a(I118
I117
tp136
aa(lp137
(I413
I412
tp138
a(I412
I416
tp139
a(I416
I413
tp140
aa(lp141
(I133
I132
tp142
a(I132
I131
tp143
a(I131
I133
tp144
aa(lp145
(I67
I348
tp146
a(I348
I70
tp147
a(I70
I67
tp148
aa(lp149
(I191
I188
tp150
a(I188
I204
tp151
a(I204
I191
tp152
aa(lp153
(I332
I309
tp154
a(I309
I307
tp155
a(I307
I332
tp156
aa(lp157
(I202
I200
tp158
a(I200
I199
tp159
a(I199
I202
tp160
aa(lp161
(I257
I290
tp162
a(I290
I312
tp163
a(I312
I268
tp164
a(I268
I257
tp165
aa(lp166
(I200
I202
tp167
a(I202
I178
tp168
a(I178
I175
tp169
a(I175
I200
tp170
aa(lp171
(I26
I362
tp172
a(I362
I28
tp173
a(I28
I25
tp174
a(I25
I26
tp175
aa(lp176
(I140
I214
tp177
a(I214
I215
tp178
a(I215
I141
tp179
a(I141
I140
tp180
aa(lp181
(I324
I306
tp182
a(I306
I305
tp183
a(I305
I329
tp184
a(I329
I324
tp185
aa(lp186
(I373
I371
tp187
a(I371
I415
tp188
a(I415
I417
tp189
a(I417
I373
tp190
aa(lp191
(I195
I194
tp192
a(I194
I261
tp193
a(I261
I262
tp194
a(I262
I195
tp195
aa(lp196
(I396
I398
tp197
a(I398
I3
tp198
a(I3
I407
tp199
a(I407
I396
tp200
aa(lp201
(I428
I423
tp202
a(I423
I424
tp203
a(I424
I429
tp204
a(I429
I428
tp205
aa(lp206
(I99
I103
tp207
a(I103
I102
tp208
a(I102
I100
tp209
a(I100
I99
tp210
aa(lp211
(I330
I321
tp212
a(I321
I322
tp213
a(I322
I331
tp214
a(I331
I330
tp215
aa(lp216
(I232
I231
tp217
a(I231
I240
tp218
a(I240
I243
tp219
a(I243
I232
tp220
aa(lp221
(I133
I116
tp222
a(I116
I114
tp223
a(I114
I132
tp224
a(I132
I133
tp225
aa(lp226
(I266
I264
tp227
a(I264
I256
tp228
a(I256
I254
tp229
a(I254
I266
tp230
aa(lp231
(I294
I274
tp232
a(I274
I273
tp233
a(I273
I289
tp234
a(I289
I294
tp235
aa(lp236
(I181
I182
tp237
a(I182
I187
tp238
a(I187
I185
tp239
a(I185
I181
tp240
aa(lp241
(I245
I264
tp242
a(I264
I266
tp243
a(I266
I247
tp244
a(I247
I245
tp245
aa(lp246
(I361
I345
tp247
a(I345
I344
tp248
a(I344
I360
tp249
a(I360
I361
tp250
aa(lp251
(I392
I15
tp252
a(I15
I401
tp253
a(I401
I391
tp254
a(I391
I392
tp255
aa(lp256
(I423
I428
tp257
a(I428
I427
tp258
a(I427
I422
tp259
a(I422
I423
tp260
aa(lp261
(I31
I350
tp262
a(I350
I349
tp263
a(I349
I29
tp264
a(I29
I31
tp265
aa(lp266
(I1
I0
tp267
a(I0
I397
tp268
a(I397
I90
tp269
a(I90
I1
tp270
aa(lp271
(I130
I123
tp272
a(I123
I122
tp273
a(I122
I127
tp274
a(I127
I130
tp275
aa(lp276
(I197
I176
tp277
a(I176
I177
tp278
a(I177
I198
tp279
a(I198
I197
tp280
aa(lp281
(I358
I352
tp282
a(I352
I351
tp283
a(I351
I356
tp284
a(I356
I358
tp285
aa(lp286
(I349
I33
tp287
a(I33
I30
tp288
a(I30
I29
tp289
a(I29
I349
tp290
aa(lp291
(I280
I144
tp292
a(I144
I142
tp293
a(I142
I278
tp294
a(I278
I280
tp295
aa(lp296
(I38
I37
tp297
a(I37
I78
tp298
a(I78
I66
tp299
a(I66
I38
tp300
aa(lp301
(I10
I8
tp302
a(I8
I9
tp303
a(I9
I11
tp304
a(I11
I10
tp305
aa(lp306
(I76
I77
tp307
a(I77
I287
tp308
a(I287
I277
tp309
a(I277
I76
tp310
aa(lp311
(I296
I275
tp312
a(I275
I274
tp313
a(I274
I294
tp314
a(I294
I296
tp315
aa(lp316
(I243
I221
tp317
a(I221
I219
tp318
a(I219
I232
tp319
a(I232
I243
tp320
aa(lp321
(I427
I425
tp322
a(I425
I421
tp323
a(I421
I422
tp324
a(I422
I427
tp325
aa(lp326
(I201
I190
tp327
a(I190
I23
tp328
a(I23
I383
tp329
a(I383
I201
tp330
aa(lp331
(I330
I328
tp332
a(I328
I320
tp333
a(I320
I321
tp334
a(I321
I330
tp335
aa(lp336
(I184
I183
tp337
a(I183
I186
tp338
a(I186
I196
tp339
a(I196
I184
tp340
aa(lp341
(I236
I267
tp342
a(I267
I265
tp343
a(I265
I234
tp344
a(I234
I236
tp345
aa(lp346
(I340
I339
tp347
a(I339
I337
tp348
a(I337
I338
tp349
a(I338
I340
tp350
aa(lp351
(I148
I95
tp352
a(I95
I96
tp353
a(I96
I151
tp354
a(I151
I148
tp355
aa(lp356
(I235
I146
tp357
a(I146
I157
tp358
a(I157
I246
tp359
a(I246
I235
tp360
aa(lp361
(I315
I283
tp362
a(I283
I285
tp363
a(I285
I316
tp364
a(I316
I315
tp365
aa(lp366
(I69
I70
tp367
a(I70
I348
tp368
a(I348
I80
tp369
a(I80
I69
tp370
aa(lp371
(I238
I230
tp372
a(I230
I233
tp373
a(I233
I239
tp374
a(I239
I238
tp375
aa(lp376
(I135
I146
tp377
a(I146
I235
tp378
a(I235
I224
tp379
a(I224
I135
tp380
aa(lp381
(I97
I73
tp382
a(I73
I71
tp383
a(I71
I87
tp384
a(I87
I97
tp385
aa(lp386
(I174
I176
tp387
a(I176
I197
tp388
a(I197
I196
tp389
a(I196
I186
tp390
a(I186
I174
tp391
aa(lp392
(I332
I333
tp393
a(I333
I336
tp394
a(I336
I308
tp395
a(I308
I309
tp396
a(I309
I332
tp397
aa(lp398
(I296
I294
tp399
a(I294
I289
tp400
a(I289
I291
tp401
a(I291
I295
tp402
a(I295
I296
tp403
aa(lp404
(I88
I86
tp405
a(I86
I98
tp406
a(I98
I100
tp407
a(I100
I102
tp408
a(I102
I88
tp409
aa(lp410
(I162
I160
tp411
a(I160
I165
tp412
a(I165
I166
tp413
a(I166
I169
tp414
a(I169
I162
tp415
aa(lp416
(I84
I359
tp417
a(I359
I360
tp418
a(I360
I344
tp419
a(I344
I85
tp420
a(I85
I84
tp421
aa(lp422
(I241
I220
tp423
a(I220
I221
tp424
a(I221
I243
tp425
a(I243
I240
tp426
a(I240
I241
tp427
aa(lp428
(I270
I271
tp429
a(I271
I269
tp430
a(I269
I210
tp431
a(I210
I211
tp432
a(I211
I270
tp433
aa(lp434
(I107
I108
tp435
a(I108
I121
tp436
a(I121
I120
tp437
a(I120
I128
tp438
a(I128
I107
tp439
aa(lp440
(I308
I336
tp441
a(I336
I338
tp442
a(I338
I337
tp443
a(I337
I310
tp444
a(I310
I308
tp445
aa(lp446
(I151
I94
tp447
a(I94
I93
tp448
a(I93
I134
tp449
a(I134
I148
tp450
a(I148
I151
tp451
aa(lp452
(I283
I315
tp453
a(I315
I317
tp454
a(I317
I299
tp455
a(I299
I284
tp456
a(I284
I283
tp457
aa(lp458
(I229
I218
tp459
a(I218
I208
tp460
a(I208
I209
tp461
a(I209
I228
tp462
a(I228
I229
tp463
aa(lp464
(I412
I414
tp465
a(I414
I417
tp466
a(I417
I415
tp467
a(I415
I416
tp468
a(I416
I412
tp469
aa(lp470
(I177
I178
tp471
a(I178
I202
tp472
a(I202
I199
tp473
a(I199
I198
tp474
a(I198
I177
tp475
aa(lp476
(I66
I78
tp477
a(I78
I80
tp478
a(I80
I348
tp479
a(I348
I67
tp480
a(I67
I66
tp481
aa(lp482
(I135
I224
tp483
a(I224
I212
tp484
a(I212
I2
tp485
a(I2
I419
tp486
a(I419
I135
tp487
aa(lp488
(I381
I382
tp489
a(I382
I16
tp490
a(I16
I15
tp491
a(I15
I392
tp492
a(I392
I381
tp493
aa(lp494
(I327
I318
tp495
a(I318
I324
tp496
a(I324
I329
tp497
a(I329
I326
tp498
a(I326
I327
tp499
aa(lp500
(I160
I161
tp501
a(I161
I164
tp502
a(I164
I163
tp503
a(I163
I165
tp504
a(I165
I160
tp505
aa(lp506
(I247
I266
tp507
a(I266
I254
tp508
a(I254
I255
tp509
a(I255
I248
tp510
a(I248
I247
tp511
aa(lp512
(I311
I310
tp513
a(I310
I337
tp514
a(I337
I339
tp515
a(I339
I341
tp516
a(I341
I311
tp517
aa(lp518
(I260
I258
tp519
a(I258
I259
tp520
a(I259
I250
tp521
a(I250
I252
tp522
a(I252
I260
tp523
aa(lp524
(I68
I57
tp525
a(I57
I79
tp526
a(I79
I24
tp527
a(I24
I35
tp528
a(I35
I68
tp529
aa(lp530
(I149
I137
tp531
a(I137
I136
tp532
a(I136
I152
tp533
a(I152
I156
tp534
a(I156
I149
tp535
aa(lp536
(I278
I142
tp537
a(I142
I141
tp538
a(I141
I215
tp539
a(I215
I216
tp540
a(I216
I278
tp541
aa(lp542
(I408
I13
tp543
a(I13
I124
tp544
a(I124
I113
tp545
a(I113
I46
tp546
a(I46
I408
tp547
aa(lp548
(I291
I292
tp549
a(I292
I297
tp550
a(I297
I298
tp551
a(I298
I295
tp552
a(I295
I291
tp553
aa(lp554
(I9
I8
tp555
a(I8
I4
tp556
a(I4
I399
tp557
a(I399
I400
tp558
a(I400
I9
tp559
aa(lp560
(I4
I8
tp561
a(I8
I10
tp562
a(I10
I12
tp563
a(I12
I5
tp564
a(I5
I4
tp565
aa(lp566
(I194
I193
tp567
a(I193
I258
tp568
a(I258
I260
tp569
a(I260
I261
tp570
a(I261
I194
tp571
aa(lp572
(I408
I46
tp573
a(I46
I35
tp574
a(I35
I24
tp575
a(I24
I386
tp576
a(I386
I408
tp577
aa(lp578
(I241
I242
tp579
a(I242
I244
tp580
a(I244
I222
tp581
a(I222
I220
tp582
a(I220
I241
tp583
aa(lp584
(I118
I104
tp585
a(I104
I92
tp586
a(I92
I91
tp587
a(I91
I117
tp588
a(I117
I118
tp589
aa(lp590
(I246
I157
tp591
a(I157
I168
tp592
a(I168
I301
tp593
a(I301
I290
tp594
a(I290
I257
tp595
a(I257
I246
tp596
aa(lp597
(I98
I97
tp598
a(I97
I87
tp599
a(I87
I89
tp600
a(I89
I99
tp601
a(I99
I100
tp602
a(I100
I98
tp603
aa(lp604
(I390
I393
tp605
a(I393
I346
tp606
a(I346
I357
tp607
a(I357
I380
tp608
a(I380
I379
tp609
a(I379
I390
tp610
aa(lp611
(I412
I413
tp612
a(I413
I410
tp613
a(I410
I402
tp614
a(I402
I403
tp615
a(I403
I414
tp616
a(I414
I412
tp617
aa(lp618
(I7
I12
tp619
a(I12
I10
tp620
a(I10
I11
tp621
a(I11
I14
tp622
a(I14
I6
tp623
a(I6
I7
tp624
aa(lp625
(I262
I261
tp626
a(I261
I260
tp627
a(I260
I252
tp628
a(I252
I253
tp629
a(I253
I263
tp630
a(I263
I262
tp631
aa(lp632
(I133
I131
tp633
a(I131
I129
tp634
a(I129
I125
tp635
a(I125
I115
tp636
a(I115
I116
tp637
a(I116
I133
tp638
aa(lp639
(I27
I384
tp640
a(I384
I383
tp641
a(I383
I23
tp642
a(I23
I25
tp643
a(I25
I28
tp644
a(I28
I27
tp645
aa(lp646
(I35
I46
tp647
a(I46
I113
tp648
a(I113
I223
tp649
a(I223
I112
tp650
a(I112
I68
tp651
a(I68
I35
tp652
aa(lp653
(I305
I302
tp654
a(I302
I303
tp655
a(I303
I325
tp656
a(I325
I326
tp657
a(I326
I329
tp658
a(I329
I305
tp659
aa(lp660
(I331
I319
tp661
a(I319
I318
tp662
a(I318
I327
tp663
a(I327
I328
tp664
a(I328
I330
tp665
a(I330
I331
tp666
aa(lp667
(I356
I351
tp668
a(I351
I354
tp669
a(I354
I82
tp670
a(I82
I83
tp671
a(I83
I355
tp672
a(I355
I356
tp673
aa(lp674
(I43
I42
tp675
a(I42
I41
tp676
a(I41
I22
tp677
a(I22
I21
tp678
a(I21
I36
tp679
a(I36
I43
tp680
aa(lp681
(I418
I421
tp682
a(I421
I425
tp683
a(I425
I404
tp684
a(I404
I406
tp685
a(I406
I426
tp686
a(I426
I418
tp687
aa(lp688
(I339
I340
tp689
a(I340
I342
tp690
a(I342
I313
tp691
a(I313
I314
tp692
a(I314
I341
tp693
a(I341
I339
tp694
aa(lp695
(I205
I206
tp696
a(I206
I207
tp697
a(I207
I189
tp698
a(I189
I191
tp699
a(I191
I204
tp700
a(I204
I205
tp701
aa(lp702
(I24
I79
tp703
a(I79
I101
tp704
a(I101
I90
tp705
a(I90
I397
tp706
a(I397
I386
tp707
a(I386
I24
tp708
aa(lp709
(I167
I166
tp710
a(I166
I165
tp711
a(I165
I163
tp712
a(I163
I154
tp713
a(I154
I155
tp714
a(I155
I167
tp715
aa(lp716
(I101
I57
tp717
a(I57
I68
tp718
a(I68
I112
tp719
a(I112
I1
tp720
a(I1
I90
tp721
a(I90
I101
tp722
aa(lp723
(I136
I138
tp724
a(I138
I155
tp725
a(I155
I154
tp726
a(I154
I153
tp727
a(I153
I152
tp728
a(I152
I136
tp729
aa(lp730
(I45
I48
tp731
a(I48
I44
tp732
a(I44
I41
tp733
a(I41
I42
tp734
a(I42
I47
tp735
a(I47
I45
tp736
aa(lp737
(I163
I164
tp738
a(I164
I159
tp739
a(I159
I158
tp740
a(I158
I153
tp741
a(I153
I154
tp742
a(I154
I163
tp743
aa(lp744
(I114
I109
tp745
a(I109
I106
tp746
a(I106
I129
tp747
a(I129
I131
tp748
a(I131
I132
tp749
a(I132
I114
tp750
aa(lp751
(I170
I171
tp752
a(I171
I53
tp753
a(I53
I52
tp754
a(I52
I162
tp755
a(I162
I169
tp756
a(I169
I170
tp757
aa(lp758
(I278
I216
tp759
a(I216
I217
tp760
a(I217
I143
tp761
a(I143
I145
tp762
a(I145
I280
tp763
a(I280
I278
tp764
aa(lp765
(I126
I128
tp766
a(I128
I120
tp767
a(I120
I119
tp768
a(I119
I123
tp769
a(I123
I130
tp770
a(I130
I126
tp771
aa(lp772
(I122
I123
tp773
a(I123
I119
tp774
a(I119
I111
tp775
a(I111
I115
tp776
a(I115
I125
tp777
a(I125
I122
tp778
aa(lp779
(I230
I238
tp780
a(I238
I242
tp781
a(I242
I241
tp782
a(I241
I240
tp783
a(I240
I231
tp784
a(I231
I230
tp785
aa(lp786
(I182
I181
tp787
a(I181
I170
tp788
a(I170
I169
tp789
a(I169
I166
tp790
a(I166
I167
tp791
a(I167
I182
tp792
aa(lp793
(I112
I223
tp794
a(I223
I375
tp795
a(I375
I334
tp796
a(I334
I0
tp797
a(I0
I1
tp798
a(I1
I112
tp799
aa(lp800
(I193
I192
tp801
a(I192
I227
tp802
a(I227
I251
tp803
a(I251
I259
tp804
a(I259
I258
tp805
a(I258
I193
tp806
aa(lp807
(I381
I392
tp808
a(I392
I391
tp809
a(I391
I389
tp810
a(I389
I390
tp811
a(I390
I379
tp812
a(I379
I378
tp813
a(I378
I381
tp814
aa(lp815
(I288
I287
tp816
a(I287
I77
tp817
a(I77
I85
tp818
a(I85
I344
tp819
a(I344
I345
tp820
a(I345
I347
tp821
a(I347
I288
tp822
aa(lp823
(I246
I257
tp824
a(I257
I268
tp825
a(I268
I279
tp826
a(I279
I212
tp827
a(I212
I224
tp828
a(I224
I235
tp829
a(I235
I246
tp830
aa(lp831
(I275
I270
tp832
a(I270
I211
tp833
a(I211
I213
tp834
a(I213
I272
tp835
a(I272
I273
tp836
a(I273
I274
tp837
a(I274
I275
tp838
aa(lp839
(I33
I34
tp840
a(I34
I19
tp841
a(I19
I20
tp842
a(I20
I387
tp843
a(I387
I385
tp844
a(I385
I30
tp845
a(I30
I33
tp846
aa(lp847
(I150
I156
tp848
a(I156
I152
tp849
a(I152
I153
tp850
a(I153
I158
tp851
a(I158
I62
tp852
a(I62
I61
tp853
a(I61
I150
tp854
aa(lp855
(I4
I5
tp856
a(I5
I7
tp857
a(I7
I6
tp858
a(I6
I3
tp859
a(I3
I398
tp860
a(I398
I399
tp861
a(I399
I4
tp862
aa(lp863
(I365
I347
tp864
a(I347
I345
tp865
a(I345
I361
tp866
a(I361
I363
tp867
a(I363
I364
tp868
a(I364
I366
tp869
a(I366
I365
tp870
aa(lp871
(I371
I372
tp872
a(I372
I411
tp873
a(I411
I410
tp874
a(I410
I413
tp875
a(I413
I416
tp876
a(I416
I415
tp877
a(I415
I371
tp878
aa(lp879
(I168
I179
tp880
a(I179
I378
tp881
a(I378
I379
tp882
a(I379
I380
tp883
a(I380
I335
tp884
a(I335
I301
tp885
a(I301
I168
tp886
aa(lp887
(I72
I73
tp888
a(I73
I97
tp889
a(I97
I98
tp890
a(I98
I86
tp891
a(I86
I64
tp892
a(I64
I65
tp893
a(I65
I72
tp894
aa(lp895
(I32
I31
tp896
a(I31
I29
tp897
a(I29
I30
tp898
a(I30
I385
tp899
a(I385
I384
tp900
a(I384
I27
tp901
a(I27
I32
tp902
aa(lp903
(I333
I332
tp904
a(I332
I307
tp905
a(I307
I304
tp906
a(I304
I316
tp907
a(I316
I285
tp908
a(I285
I286
tp909
a(I286
I333
tp910
aa(lp911
(I427
I428
tp912
a(I428
I429
tp913
a(I429
I420
tp914
a(I420
I405
tp915
a(I405
I404
tp916
a(I404
I425
tp917
a(I425
I427
tp918
aa(lp919
(I411
I369
tp920
a(I369
I370
tp921
a(I370
I395
tp922
a(I395
I394
tp923
a(I394
I402
tp924
a(I402
I410
tp925
a(I410
I411
tp926
aa(lp927
(I267
I236
tp928
a(I236
I237
tp929
a(I237
I228
tp930
a(I228
I209
tp931
a(I209
I210
tp932
a(I210
I269
tp933
a(I269
I267
tp934
aa(lp935
(I350
I31
tp936
a(I31
I32
tp937
a(I32
I359
tp938
a(I359
I84
tp939
a(I84
I82
tp940
a(I82
I354
tp941
a(I354
I350
tp942
aa(lp943
(I181
I185
tp944
a(I185
I183
tp945
a(I183
I184
tp946
a(I184
I172
tp947
a(I172
I171
tp948
a(I171
I170
tp949
a(I170
I181
tp950
aa(lp951
(I355
I81
tp952
a(I81
I40
tp953
a(I40
I39
tp954
a(I39
I353
tp955
a(I353
I358
tp956
a(I358
I356
tp957
a(I356
I355
tp958
aa(lp959
(I282
I293
tp960
a(I293
I292
tp961
a(I292
I291
tp962
a(I291
I289
tp963
a(I289
I273
tp964
a(I273
I272
tp965
a(I272
I276
tp966
a(I276
I282
tp967
aa(lp968
(I320
I328
tp969
a(I328
I327
tp970
a(I327
I326
tp971
a(I326
I325
tp972
a(I325
I300
tp973
a(I300
I299
tp974
a(I299
I317
tp975
a(I317
I320
tp976
aa(lp977
(I367
I279
tp978
a(I279
I268
tp979
a(I268
I312
tp980
a(I312
I323
tp981
a(I323
I377
tp982
a(I377
I365
tp983
a(I365
I366
tp984
a(I366
I367
tp985
aa(lp986
(I148
I134
tp987
a(I134
I137
tp988
a(I137
I149
tp989
a(I149
I150
tp990
a(I150
I61
tp991
a(I61
I60
tp992
a(I60
I95
tp993
a(I95
I148
tp994
aa(lp995
(I276
I272
tp996
a(I272
I213
tp997
a(I213
I214
tp998
a(I214
I140
tp999
a(I140
I75
tp1000
a(I75
I76
tp1001
a(I76
I277
tp1002
a(I277
I276
tp1003
aa(lp1004
(I119
I120
tp1005
a(I120
I121
tp1006
a(I121
I105
tp1007
a(I105
I104
tp1008
a(I104
I118
tp1009
a(I118
I110
tp1010
a(I110
I111
tp1011
a(I111
I119
tp1012
aa(lp1013
(I60
I61
tp1014
a(I61
I62
tp1015
a(I62
I51
tp1016
a(I51
I47
tp1017
a(I47
I42
tp1018
a(I42
I43
tp1019
a(I43
I59
tp1020
a(I59
I60
tp1021
aa(lp1022
(I198
I199
tp1023
a(I199
I200
tp1024
a(I200
I175
tp1025
a(I175
I172
tp1026
a(I172
I184
tp1027
a(I184
I196
tp1028
a(I196
I197
tp1029
a(I197
I198
tp1030
aa(lp1031
(I160
I162
tp1032
a(I162
I52
tp1033
a(I52
I51
tp1034
a(I51
I62
tp1035
a(I62
I158
tp1036
a(I158
I159
tp1037
a(I159
I161
tp1038
a(I161
I160
tp1039
aa(lp1040
(I382
I388
tp1041
a(I388
I20
tp1042
a(I20
I19
tp1043
a(I19
I21
tp1044
a(I21
I22
tp1045
a(I22
I17
tp1046
a(I17
I16
tp1047
a(I16
I382
tp1048
aa(lp1049
(I223
I113
tp1050
a(I113
I124
tp1051
a(I124
I26
tp1052
a(I26
I25
tp1053
a(I25
I23
tp1054
a(I23
I190
tp1055
a(I190
I375
tp1056
a(I375
I223
tp1057
aa(lp1058
(I27
I28
tp1059
a(I28
I362
tp1060
a(I362
I363
tp1061
a(I363
I361
tp1062
a(I361
I360
tp1063
a(I360
I359
tp1064
a(I359
I32
tp1065
a(I32
I27
tp1066
aa(lp1067
(I13
I408
tp1068
a(I408
I386
tp1069
a(I386
I397
tp1070
a(I397
I0
tp1071
a(I0
I334
tp1072
a(I334
I419
tp1073
a(I419
I2
tp1074
a(I2
I13
tp1075
aa(lp1076
(I125
I129
tp1077
a(I129
I106
tp1078
a(I106
I107
tp1079
a(I107
I128
tp1080
a(I128
I126
tp1081
a(I126
I127
tp1082
a(I127
I122
tp1083
a(I122
I125
tp1084
aa(lp1085
(I21
I19
tp1086
a(I19
I34
tp1087
a(I34
I39
tp1088
a(I39
I40
tp1089
a(I40
I37
tp1090
a(I37
I38
tp1091
a(I38
I36
tp1092
a(I36
I21
tp1093
aa(lp1094
(I297
I292
tp1095
a(I292
I293
tp1096
a(I293
I281
tp1097
a(I281
I284
tp1098
a(I284
I299
tp1099
a(I299
I300
tp1100
a(I300
I303
tp1101
a(I303
I302
tp1102
a(I302
I297
tp1103
aa(lp1104
(I264
I245
tp1105
a(I245
I239
tp1106
a(I239
I233
tp1107
a(I233
I234
tp1108
a(I234
I265
tp1109
a(I265
I263
tp1110
a(I263
I253
tp1111
a(I253
I256
tp1112
a(I256
I264
tp1113
aa(lp1114
(I55
I56
tp1115
a(I56
I50
tp1116
a(I50
I45
tp1117
a(I45
I47
tp1118
a(I47
I51
tp1119
a(I51
I52
tp1120
a(I52
I53
tp1121
a(I53
I54
tp1122
a(I54
I55
tp1123
aa(lp1124
(I275
I296
tp1125
a(I296
I295
tp1126
a(I295
I298
tp1127
a(I298
I313
tp1128
a(I313
I342
tp1129
a(I342
I343
tp1130
a(I343
I271
tp1131
a(I271
I270
tp1132
a(I270
I275
tp1133
aa(lp1134
(I409
I406
tp1135
a(I406
I404
tp1136
a(I404
I405
tp1137
a(I405
I403
tp1138
a(I403
I402
tp1139
a(I402
I394
tp1140
a(I394
I396
tp1141
a(I396
I407
tp1142
a(I407
I409
tp1143
aa(lp1144
(I352
I353
tp1145
a(I353
I39
tp1146
a(I39
I34
tp1147
a(I34
I33
tp1148
a(I33
I349
tp1149
a(I349
I350
tp1150
a(I350
I354
tp1151
a(I354
I351
tp1152
a(I351
I352
tp1153
aa(lp1154
(I17
I18
tp1155
a(I18
I14
tp1156
a(I14
I11
tp1157
a(I11
I9
tp1158
a(I9
I400
tp1159
a(I400
I401
tp1160
a(I401
I15
tp1161
a(I15
I16
tp1162
a(I16
I17
tp1163
aa(lp1164
(I254
I256
tp1165
a(I256
I253
tp1166
a(I253
I252
tp1167
a(I252
I250
tp1168
a(I250
I251
tp1169
a(I251
I227
tp1170
a(I227
I225
tp1171
a(I225
I249
tp1172
a(I249
I255
tp1173
a(I255
I254
tp1174
aa(lp1175
(I201
I179
tp1176
a(I179
I168
tp1177
a(I168
I157
tp1178
a(I157
I146
tp1179
a(I146
I135
tp1180
a(I135
I419
tp1181
a(I419
I334
tp1182
a(I334
I375
tp1183
a(I375
I190
tp1184
a(I190
I201
tp1185
aa(lp1186
(I378
I179
tp1187
a(I179
I201
tp1188
a(I201
I383
tp1189
a(I383
I384
tp1190
a(I384
I385
tp1191
a(I385
I387
tp1192
a(I387
I388
tp1193
a(I388
I382
tp1194
a(I382
I381
tp1195
a(I381
I378
tp1196
aa(lp1197
(I167
I155
tp1198
a(I155
I138
tp1199
a(I138
I139
tp1200
a(I139
I203
tp1201
a(I203
I205
tp1202
a(I205
I204
tp1203
a(I204
I188
tp1204
a(I188
I187
tp1205
a(I187
I182
tp1206
a(I182
I167
tp1207
aa(lp1208
(I124
I13
tp1209
a(I13
I2
tp1210
a(I2
I212
tp1211
a(I212
I279
tp1212
a(I279
I367
tp1213
a(I367
I364
tp1214
a(I364
I363
tp1215
a(I363
I362
tp1216
a(I362
I26
tp1217
a(I26
I124
tp1218
aa(lp1219
(I109
I103
tp1220
a(I103
I99
tp1221
a(I99
I89
tp1222
a(I89
I92
tp1223
a(I92
I104
tp1224
a(I104
I105
tp1225
a(I105
I108
tp1226
a(I108
I107
tp1227
a(I107
I106
tp1228
a(I106
I109
tp1229
aa(lp1230
(I245
I247
tp1231
a(I247
I248
tp1232
a(I248
I249
tp1233
a(I249
I225
tp1234
a(I225
I226
tp1235
a(I226
I244
tp1236
a(I244
I242
tp1237
a(I242
I238
tp1238
a(I238
I239
tp1239
a(I239
I245
tp1240
aa(lp1241
(I234
I233
tp1242
a(I233
I230
tp1243
a(I230
I231
tp1244
a(I231
I232
tp1245
a(I232
I219
tp1246
a(I219
I218
tp1247
a(I218
I229
tp1248
a(I229
I237
tp1249
a(I237
I236
tp1250
a(I236
I234
tp1251
aa(lp1252
(I320
I317
tp1253
a(I317
I315
tp1254
a(I315
I316
tp1255
a(I316
I304
tp1256
a(I304
I306
tp1257
a(I306
I324
tp1258
a(I324
I318
tp1259
a(I318
I319
tp1260
a(I319
I322
tp1261
a(I322
I321
tp1262
a(I321
I320
tp1263
aa(lp1264
(I110
I117
tp1265
a(I117
I91
tp1266
a(I91
I88
tp1267
a(I88
I102
tp1268
a(I102
I103
tp1269
a(I103
I109
tp1270
a(I109
I114
tp1271
a(I114
I116
tp1272
a(I116
I115
tp1273
a(I115
I111
tp1274
a(I111
I110
tp1275
aa(lp1276
(I173
I180
tp1277
a(I180
I54
tp1278
a(I54
I53
tp1279
a(I53
I171
tp1280
a(I171
I172
tp1281
a(I172
I175
tp1282
a(I175
I178
tp1283
a(I178
I177
tp1284
a(I177
I176
tp1285
a(I176
I174
tp1286
a(I174
I173
tp1287
aa(lp1288
(I43
I36
tp1289
a(I36
I38
tp1290
a(I38
I66
tp1291
a(I66
I67
tp1292
a(I67
I70
tp1293
a(I70
I69
tp1294
a(I69
I63
tp1295
a(I63
I65
tp1296
a(I65
I64
tp1297
a(I64
I59
tp1298
a(I59
I43
tp1299
aa(lp1300
(I422
I421
tp1301
a(I421
I418
tp1302
a(I418
I374
tp1303
a(I374
I373
tp1304
a(I373
I417
tp1305
a(I417
I414
tp1306
a(I414
I403
tp1307
a(I403
I405
tp1308
a(I405
I420
tp1309
a(I420
I424
tp1310
a(I424
I423
tp1311
a(I423
I422
tp1312
aa(lp1313
(I396
I394
tp1314
a(I394
I395
tp1315
a(I395
I368
tp1316
a(I368
I346
tp1317
a(I346
I393
tp1318
a(I393
I389
tp1319
a(I389
I391
tp1320
a(I391
I401
tp1321
a(I401
I400
tp1322
a(I400
I399
tp1323
a(I399
I398
tp1324
a(I398
I396
tp1325
aa(lp1326
(I333
I286
tp1327
a(I286
I49
tp1328
a(I49
I48
tp1329
a(I48
I45
tp1330
a(I45
I50
tp1331
a(I50
I58
tp1332
a(I58
I343
tp1333
a(I343
I342
tp1334
a(I342
I340
tp1335
a(I340
I338
tp1336
a(I338
I336
tp1337
a(I336
I333
tp1338
aa(lp1339
(I221
I220
tp1340
a(I220
I222
tp1341
a(I222
I226
tp1342
a(I226
I225
tp1343
a(I225
I227
tp1344
a(I227
I192
tp1345
a(I192
I189
tp1346
a(I189
I207
tp1347
a(I207
I208
tp1348
a(I208
I218
tp1349
a(I218
I219
tp1350
a(I219
I221
tp1351
aa(lp1352
(I173
I195
tp1353
a(I195
I262
tp1354
a(I262
I263
tp1355
a(I263
I265
tp1356
a(I265
I267
tp1357
a(I267
I269
tp1358
a(I269
I271
tp1359
a(I271
I343
tp1360
a(I343
I58
tp1361
a(I58
I56
tp1362
a(I56
I55
tp1363
a(I55
I180
tp1364
a(I180
I173
tp1365
aa(lp1366
(I191
I189
tp1367
a(I189
I192
tp1368
a(I192
I193
tp1369
a(I193
I194
tp1370
a(I194
I195
tp1371
a(I195
I173
tp1372
a(I173
I174
tp1373
a(I174
I186
tp1374
a(I186
I183
tp1375
a(I183
I185
tp1376
a(I185
I187
tp1377
a(I187
I188
tp1378
a(I188
I191
tp1379
aa(lp1380
(I308
I310
tp1381
a(I310
I311
tp1382
a(I311
I314
tp1383
a(I314
I313
tp1384
a(I313
I298
tp1385
a(I298
I297
tp1386
a(I297
I302
tp1387
a(I302
I305
tp1388
a(I305
I306
tp1389
a(I306
I304
tp1390
a(I304
I307
tp1391
a(I307
I309
tp1392
a(I309
I308
tp1393
aa(lp1394
(I376
I374
tp1395
a(I374
I418
tp1396
a(I418
I426
tp1397
a(I426
I409
tp1398
a(I409
I407
tp1399
a(I407
I3
tp1400
a(I3
I6
tp1401
a(I6
I14
tp1402
a(I14
I18
tp1403
a(I18
I288
tp1404
a(I288
I347
tp1405
a(I347
I365
tp1406
a(I365
I377
tp1407
a(I377
I376
tp1408
aa(lp1409
(I211
I210
tp1410
a(I210
I209
tp1411
a(I209
I208
tp1412
a(I208
I207
tp1413
a(I207
I206
tp1414
a(I206
I203
tp1415
a(I203
I139
tp1416
a(I139
I147
tp1417
a(I147
I217
tp1418
a(I217
I216
tp1419
a(I216
I215
tp1420
a(I215
I214
tp1421
a(I214
I213
tp1422
a(I213
I211
tp1423
aa(lp1424
(I144
I145
tp1425
a(I145
I143
tp1426
a(I143
I147
tp1427
a(I147
I139
tp1428
a(I139
I138
tp1429
a(I138
I136
tp1430
a(I136
I137
tp1431
a(I137
I134
tp1432
a(I134
I93
tp1433
a(I93
I74
tp1434
a(I74
I75
tp1435
a(I75
I140
tp1436
a(I140
I141
tp1437
a(I141
I142
tp1438
a(I142
I144
tp1439
aa(lp1440
(I71
I74
tp1441
a(I74
I93
tp1442
a(I93
I94
tp1443
a(I94
I96
tp1444
a(I96
I95
tp1445
a(I95
I60
tp1446
a(I60
I59
tp1447
a(I59
I64
tp1448
a(I64
I86
tp1449
a(I86
I88
tp1450
a(I88
I91
tp1451
a(I91
I92
tp1452
a(I92
I89
tp1453
a(I89
I87
tp1454
a(I87
I71
tp1455
aa(lp1456
(I376
I323
tp1457
a(I323
I312
tp1458
a(I312
I290
tp1459
a(I290
I301
tp1460
a(I301
I335
tp1461
a(I335
I357
tp1462
a(I357
I346
tp1463
a(I346
I368
tp1464
a(I368
I370
tp1465
a(I370
I369
tp1466
a(I369
I372
tp1467
a(I372
I371
tp1468
a(I371
I373
tp1469
a(I373
I374
tp1470
a(I374
I376
tp1471
aa(lp1472
(I281
I282
tp1473
a(I282
I276
tp1474
a(I276
I277
tp1475
a(I277
I287
tp1476
a(I287
I288
tp1477
a(I288
I18
tp1478
a(I18
I17
tp1479
a(I17
I22
tp1480
a(I22
I41
tp1481
a(I41
I44
tp1482
a(I44
I49
tp1483
a(I49
I286
tp1484
a(I286
I285
tp1485
a(I285
I283
tp1486
a(I283
I284
tp1487
a(I284
I281
tp1488
aa(lp1489
(I73
I72
tp1490
a(I72
I63
tp1491
a(I63
I69
tp1492
a(I69
I80
tp1493
a(I80
I78
tp1494
a(I78
I37
tp1495
a(I37
I40
tp1496
a(I40
I81
tp1497
a(I81
I83
tp1498
a(I83
I82
tp1499
a(I82
I84
tp1500
a(I84
I85
tp1501
a(I85
I77
tp1502
a(I77
I76
tp1503
a(I76
I75
tp1504
a(I75
I74
tp1505
a(I74
I71
tp1506
a(I71
I73
tp1507
aa.