(lp0
(lp1
(I64
I41
tp2
a(I41
I40
tp3
a(I40
I64
tp4
aa(lp5
(I330
I311
tp6
a(I311
I310
tp7
a(I310
I330
tp8
aa(lp9
(I285
I348
tp10
a(I348
I287
tp11
a(I287
I285
tp12
aa(lp13
(I444
I443
tp14
a(I443
I61
tp15
a(I61
I444
tp16
aa(lp17
(I165
I164
tp18
a(I164
I170
tp19
a(I170
I165
tp20
aa(lp21
(I282
I300
tp22
a(I300
I284
tp23
a(I284
I282
tp24
aa(lp25
(I86
I84
tp26
a(I84
I82
tp27
a(I82
I86
tp28
aa(lp29
(I182
I281
tp30
a(I281
I183
tp31
a(I183
I182
tp32
aa(lp33
(I360
I473
tp34
a(I473
I440
tp35
a(I440
I360
tp36
aa(lp37
(I102
I96
tp38
a(I96
I95
tp39
a(I95
I102
tp40
aa(lp41
(I368
I235
tp42
a(I235
I224
tp43
a(I224
I368
tp44
aa(lp45
(I153
I160
tp46
a(I160
I154
tp47
a(I154
I153
tp48
aa(lp49
(I147
I150
tp50
a(I150
I151
tp51
a(I151
I147
tp52
aa(lp53
(I77
I76
tp54
a(I76
I81
tp55
a(I81
I77
tp56
aa(lp57
(I88
I98
tp58
a(I98
I92
tp59
a(I92
I88
tp60
aa(lp61
(I10
I349
tp62
a(I349
I14
tp63
a(I14
I10
tp64
aa(lp65
(I307
I305
tp66
a(I305
I316
tp67
a(I316
I307
tp68
aa(lp69
(I288
I304
tp70
a(I304
I289
tp71
a(I289
I288
tp72
aa(lp73
(I251
I229
tp74
a(I229
I219
tp75
a(I219
I251
tp76
aa(lp77
(I466
I461
tp78
a(I461
I460
tp79
a(I460
I466
tp80
aa(lp81
(I361
I79
tp82
a(I79
I57
tp83
a(I57
I361
tp84
aa(lp85
(I446
I434
tp86
a(I434
I445
tp87
a(I445
I446
tp88
aa(lp89
(I345
I344
tp90
a(I344
I342
tp91
a(I342
I345
tp92
aa(lp93
(I129
I134
tp94
a(I134
I131
tp95
a(I131
I129
tp96
aa(lp97
(I186
I185
tp98
a(I185
I188
tp99
a(I188
I186
tp100
aa(lp101
(I135
I113
tp102
a(I113
I458
tp103
a(I458
I135
tp104
aa(lp105
(I236
I230
tp106
a(I230
I277
tp107
a(I277
I236
tp108
aa(lp109
(I114
I125
tp110
a(I125
I115
tp111
a(I115
I114
tp112
aa(lp113
(I136
I144
tp114
a(I144
I138
tp115
a(I138
I136
tp116
aa(lp117
(I7
I5
tp118
a(I5
I4
tp119
a(I4
I7
tp120
aa(lp121
(I401
I433
tp122
a(I433
I412
tp123
a(I412
I401
tp124
aa(lp125
(I450
I469
tp126
a(I469
I452
tp127
a(I452
I450
tp128
aa(lp129
(I0
I2
tp130
a(I2
I112
tp131
a(I112
I0
tp132
aa(lp133
(I48
I47
tp134
a(I47
I69
tp135
a(I69
I48
tp136
aa(lp137
(I99
I97
tp138
a(I97
I94
tp139
a(I94
I99
tp140
aa(lp141
(I374
I397
tp142
a(I397
I375
tp143
a(I375
I374
tp144
aa(lp145
(I201
I335
tp146
a(I335
I212
tp147
a(I212
I201
tp148
aa(lp149
(I51
I50
tp150
a(I50
I53
tp151
a(I53
I51
tp152
aa(lp153
(I439
I437
tp154
a(I437
I22
tp155
a(I22
I439
tp156
aa(lp157
(I424
I422
tp158
a(I422
I426
tp159
a(I426
I424
tp160
aa(lp161
(I231
I278
tp162
a(I278
I233
tp163
a(I233
I231
tp164
aa(lp165
(I75
I74
tp166
a(I74
I87
tp167
a(I87
I75
tp168
aa(lp169
(I477
I476
tp170
a(I476
I3
tp171
a(I3
I477
tp172
aa(lp173
(I453
I479
tp174
a(I479
I454
tp175
a(I454
I453
tp176
aa(lp177
(I465
I279
tp178
a(I279
I257
tp179
a(I257
I465
tp180
aa(lp181
(I227
I226
tp182
a(I226
I249
tp183
a(I249
I227
tp184
aa(lp185
(I202
I210
tp186
a(I210
I203
tp187
a(I203
I202
tp188
aa(lp189
(I234
I232
tp190
a(I232
I276
tp191
a(I276
I234
tp192
aa(lp193
(I301
I428
tp194
a(I428
I312
tp195
a(I312
I301
tp196
aa(lp197
(I457
I448
tp198
a(I448
I447
tp199
a(I447
I457
tp200
aa(lp201
(I406
I411
tp202
a(I411
I407
tp203
a(I407
I406
tp204
aa(lp205
(I23
I32
tp206
a(I32
I27
tp207
a(I27
I23
tp208
aa(lp209
(I126
I123
tp210
a(I123
I161
tp211
a(I161
I126
tp212
aa(lp213
(I68
I462
tp214
a(I462
I451
tp215
a(I451
I68
tp216
aa(lp217
(I155
I163
tp218
a(I163
I156
tp219
a(I156
I155
tp220
aa(lp221
(I373
I382
tp222
a(I382
I376
tp223
a(I376
I373
tp224
aa(lp225
(I158
I110
tp226
a(I110
I109
tp227
a(I109
I158
tp228
aa(lp229
(I197
I206
tp230
a(I206
I198
tp231
a(I198
I197
tp232
aa(lp233
(I320
I339
tp234
a(I339
I321
tp235
a(I321
I320
tp236
aa(lp237
(I370
I365
tp238
a(I365
I364
tp239
a(I364
I367
tp240
a(I367
I370
tp241
aa(lp242
(I355
I365
tp243
a(I365
I370
tp244
a(I370
I356
tp245
a(I356
I355
tp246
aa(lp247
(I336
I337
tp248
a(I337
I340
tp249
a(I340
I338
tp250
a(I338
I336
tp251
aa(lp252
(I468
I469
tp253
a(I469
I450
tp254
a(I450
I449
tp255
a(I449
I468
tp256
aa(lp257
(I85
I87
tp258
a(I87
I74
tp259
a(I74
I72
tp260
a(I72
I85
tp261
aa(lp262
(I414
I413
tp263
a(I413
I427
tp264
a(I427
I420
tp265
a(I420
I414
tp266
aa(lp267
(I69
I47
tp268
a(I47
I44
tp269
a(I44
I66
tp270
a(I66
I69
tp271
aa(lp272
(I176
I192
tp273
a(I192
I194
tp274
a(I194
I177
tp275
a(I177
I176
tp276
aa(lp277
(I189
I174
tp278
a(I174
I173
tp279
a(I173
I187
tp280
a(I187
I189
tp281
aa(lp282
(I354
I291
tp283
a(I291
I46
tp284
a(I46
I35
tp285
a(I35
I354
tp286
aa(lp287
(I293
I359
tp288
a(I359
I353
tp289
a(I353
I296
tp290
a(I296
I293
tp291
aa(lp292
(I250
I241
tp293
a(I241
I240
tp294
a(I240
I272
tp295
a(I272
I250
tp296
aa(lp297
(I107
I152
tp298
a(I152
I158
tp299
a(I158
I109
tp300
a(I109
I107
tp301
aa(lp302
(I387
I383
tp303
a(I383
I381
tp304
a(I381
I380
tp305
a(I380
I387
tp306
aa(lp307
(I476
I474
tp308
a(I474
I483
tp309
a(I483
I3
tp310
a(I3
I476
tp311
aa(lp312
(I340
I337
tp313
a(I337
I333
tp314
a(I333
I341
tp315
a(I341
I340
tp316
aa(lp317
(I196
I205
tp318
a(I205
I206
tp319
a(I206
I197
tp320
a(I197
I196
tp321
aa(lp322
(I65
I38
tp323
a(I38
I37
tp324
a(I37
I62
tp325
a(I62
I65
tp326
aa(lp327
(I265
I256
tp328
a(I256
I255
tp329
a(I255
I263
tp330
a(I263
I265
tp331
aa(lp332
(I329
I330
tp333
a(I330
I310
tp334
a(I310
I309
tp335
a(I309
I329
tp336
aa(lp337
(I159
I162
tp338
a(I162
I127
tp339
a(I127
I121
tp340
a(I121
I159
tp341
aa(lp342
(I472
I478
tp343
a(I478
I481
tp344
a(I481
I480
tp345
a(I480
I472
tp346
aa(lp347
(I348
I347
tp348
a(I347
I286
tp349
a(I286
I287
tp350
a(I287
I348
tp351
aa(lp352
(I32
I31
tp353
a(I31
I26
tp354
a(I26
I27
tp355
a(I27
I32
tp356
aa(lp357
(I174
I189
tp358
a(I189
I191
tp359
a(I191
I175
tp360
a(I175
I174
tp361
aa(lp362
(I418
I416
tp363
a(I416
I424
tp364
a(I424
I426
tp365
a(I426
I418
tp366
aa(lp367
(I105
I104
tp368
a(I104
I106
tp369
a(I106
I116
tp370
a(I116
I105
tp371
aa(lp372
(I471
I467
tp373
a(I467
I475
tp374
a(I475
I482
tp375
a(I482
I471
tp376
aa(lp377
(I146
I124
tp378
a(I124
I463
tp379
a(I463
I179
tp380
a(I179
I146
tp381
aa(lp382
(I394
I392
tp383
a(I392
I421
tp384
a(I421
I425
tp385
a(I425
I394
tp386
aa(lp387
(I466
I460
tp388
a(I460
I456
tp389
a(I456
I455
tp390
a(I455
I466
tp391
aa(lp392
(I357
I346
tp393
a(I346
I390
tp394
a(I390
I431
tp395
a(I431
I357
tp396
aa(lp397
(I259
I258
tp398
a(I258
I256
tp399
a(I256
I265
tp400
a(I265
I259
tp401
aa(lp402
(I364
I366
tp403
a(I366
I369
tp404
a(I369
I367
tp405
a(I367
I364
tp406
aa(lp407
(I400
I403
tp408
a(I403
I404
tp409
a(I404
I405
tp410
a(I405
I400
tp411
aa(lp412
(I29
I28
tp413
a(I28
I43
tp414
a(I43
I49
tp415
a(I49
I29
tp416
aa(lp417
(I266
I267
tp418
a(I267
I271
tp419
a(I271
I270
tp420
a(I270
I266
tp421
aa(lp422
(I102
I95
tp423
a(I95
I91
tp424
a(I91
I89
tp425
a(I89
I102
tp426
aa(lp427
(I351
I350
tp428
a(I350
I314
tp429
a(I314
I315
tp430
a(I315
I351
tp431
aa(lp432
(I273
I272
tp433
a(I272
I240
tp434
a(I240
I242
tp435
a(I242
I273
tp436
aa(lp437
(I215
I237
tp438
a(I237
I211
tp439
a(I211
I209
tp440
a(I209
I215
tp441
aa(lp442
(I11
I9
tp443
a(I9
I286
tp444
a(I286
I347
tp445
a(I347
I11
tp446
aa(lp447
(I42
I33
tp448
a(I33
I34
tp449
a(I34
I103
tp450
a(I103
I80
tp451
a(I80
I42
tp452
aa(lp453
(I481
I290
tp454
a(I290
I268
tp455
a(I268
I470
tp456
a(I470
I480
tp457
a(I480
I481
tp458
aa(lp459
(I299
I298
tp460
a(I298
I327
tp461
a(I327
I344
tp462
a(I344
I345
tp463
a(I345
I299
tp464
aa(lp465
(I332
I333
tp466
a(I333
I337
tp467
a(I337
I336
tp468
a(I336
I331
tp469
a(I331
I332
tp470
aa(lp471
(I231
I228
tp472
a(I228
I274
tp473
a(I274
I275
tp474
a(I275
I278
tp475
a(I278
I231
tp476
aa(lp477
(I212
I334
tp478
a(I334
I223
tp479
a(I223
I168
tp480
a(I168
I201
tp481
a(I201
I212
tp482
aa(lp483
(I252
I247
tp484
a(I247
I248
tp485
a(I248
I254
tp486
a(I254
I253
tp487
a(I253
I252
tp488
aa(lp489
(I117
I130
tp490
a(I130
I139
tp491
a(I139
I140
tp492
a(I140
I118
tp493
a(I118
I117
tp494
aa(lp495
(I324
I328
tp496
a(I328
I332
tp497
a(I332
I331
tp498
a(I331
I325
tp499
a(I325
I324
tp500
aa(lp501
(I187
I173
tp502
a(I173
I172
tp503
a(I172
I186
tp504
a(I186
I188
tp505
a(I188
I187
tp506
aa(lp507
(I264
I263
tp508
a(I263
I255
tp509
a(I255
I252
tp510
a(I252
I253
tp511
a(I253
I264
tp512
aa(lp513
(I475
I477
tp514
a(I477
I3
tp515
a(I3
I483
tp516
a(I483
I482
tp517
a(I482
I475
tp518
aa(lp519
(I271
I267
tp520
a(I267
I269
tp521
a(I269
I222
tp522
a(I222
I221
tp523
a(I221
I271
tp524
aa(lp525
(I421
I392
tp526
a(I392
I391
tp527
a(I391
I409
tp528
a(I409
I417
tp529
a(I417
I421
tp530
aa(lp531
(I317
I316
tp532
a(I316
I305
tp533
a(I305
I313
tp534
a(I313
I318
tp535
a(I318
I317
tp536
aa(lp537
(I270
I271
tp538
a(I271
I221
tp539
a(I221
I220
tp540
a(I220
I262
tp541
a(I262
I270
tp542
aa(lp543
(I366
I295
tp544
a(I295
I294
tp545
a(I294
I377
tp546
a(I377
I369
tp547
a(I369
I366
tp548
aa(lp549
(I432
I431
tp550
a(I431
I390
tp551
a(I390
I412
tp552
a(I412
I433
tp553
a(I433
I432
tp554
aa(lp555
(I276
I232
tp556
a(I232
I233
tp557
a(I233
I278
tp558
a(I278
I275
tp559
a(I275
I276
tp560
aa(lp561
(I141
I119
tp562
a(I119
I118
tp563
a(I118
I140
tp564
a(I140
I142
tp565
a(I142
I141
tp566
aa(lp567
(I397
I374
tp568
a(I374
I372
tp569
a(I372
I385
tp570
a(I385
I396
tp571
a(I396
I397
tp572
aa(lp573
(I7
I435
tp574
a(I435
I430
tp575
a(I430
I423
tp576
a(I423
I5
tp577
a(I5
I7
tp578
aa(lp579
(I192
I176
tp580
a(I176
I175
tp581
a(I175
I191
tp582
a(I191
I193
tp583
a(I193
I192
tp584
aa(lp585
(I262
I261
tp586
a(I261
I260
tp587
a(I260
I266
tp588
a(I266
I270
tp589
a(I270
I262
tp590
aa(lp591
(I410
I415
tp592
a(I415
I413
tp593
a(I413
I414
tp594
a(I414
I408
tp595
a(I408
I410
tp596
aa(lp597
(I125
I114
tp598
a(I114
I111
tp599
a(I111
I161
tp600
a(I161
I123
tp601
a(I123
I125
tp602
aa(lp603
(I181
I185
tp604
a(I185
I186
tp605
a(I186
I172
tp606
a(I172
I171
tp607
a(I171
I181
tp608
aa(lp609
(I336
I338
tp610
a(I338
I326
tp611
a(I326
I325
tp612
a(I325
I331
tp613
a(I331
I336
tp614
aa(lp615
(I41
I64
tp616
a(I64
I63
tp617
a(I63
I62
tp618
a(I62
I37
tp619
a(I37
I41
tp620
aa(lp621
(I139
I130
tp622
a(I130
I131
tp623
a(I131
I134
tp624
a(I134
I137
tp625
a(I137
I139
tp626
aa(lp627
(I400
I405
tp628
a(I405
I406
tp629
a(I406
I407
tp630
a(I407
I402
tp631
a(I402
I400
tp632
aa(lp633
(I52
I441
tp634
a(I441
I438
tp635
a(I438
I53
tp636
a(I53
I50
tp637
a(I50
I52
tp638
aa(lp639
(I395
I398
tp640
a(I398
I384
tp641
a(I384
I383
tp642
a(I383
I387
tp643
a(I387
I395
tp644
aa(lp645
(I220
I218
tp646
a(I218
I217
tp647
a(I217
I261
tp648
a(I261
I262
tp649
a(I262
I220
tp650
aa(lp651
(I396
I385
tp652
a(I385
I386
tp653
a(I386
I399
tp654
a(I399
I388
tp655
a(I388
I396
tp656
aa(lp657
(I248
I249
tp658
a(I249
I226
tp659
a(I226
I225
tp660
a(I225
I254
tp661
a(I254
I248
tp662
aa(lp663
(I111
I108
tp664
a(I108
I122
tp665
a(I122
I126
tp666
a(I126
I161
tp667
a(I161
I111
tp668
aa(lp669
(I352
I351
tp670
a(I351
I315
tp671
a(I315
I303
tp672
a(I303
I302
tp673
a(I302
I352
tp674
aa(lp675
(I170
I164
tp676
a(I164
I166
tp677
a(I166
I167
tp678
a(I167
I169
tp679
a(I169
I170
tp680
aa(lp681
(I224
I246
tp682
a(I246
I346
tp683
a(I346
I357
tp684
a(I357
I379
tp685
a(I379
I368
tp686
a(I368
I224
tp687
aa(lp688
(I399
I403
tp689
a(I403
I400
tp690
a(I400
I402
tp691
a(I402
I389
tp692
a(I389
I388
tp693
a(I388
I399
tp694
aa(lp695
(I202
I204
tp696
a(I204
I208
tp697
a(I208
I209
tp698
a(I209
I211
tp699
a(I211
I210
tp700
a(I210
I202
tp701
aa(lp702
(I427
I398
tp703
a(I398
I395
tp704
a(I395
I393
tp705
a(I393
I419
tp706
a(I419
I420
tp707
a(I420
I427
tp708
aa(lp709
(I411
I406
tp710
a(I406
I405
tp711
a(I405
I404
tp712
a(I404
I415
tp713
a(I415
I410
tp714
a(I410
I411
tp715
aa(lp716
(I458
I459
tp717
a(I459
I464
tp718
a(I464
I463
tp719
a(I463
I124
tp720
a(I124
I135
tp721
a(I135
I458
tp722
aa(lp723
(I132
I136
tp724
a(I136
I138
tp725
a(I138
I137
tp726
a(I137
I134
tp727
a(I134
I129
tp728
a(I129
I132
tp729
aa(lp730
(I143
I147
tp731
a(I147
I151
tp732
a(I151
I184
tp733
a(I184
I178
tp734
a(I178
I145
tp735
a(I145
I143
tp736
aa(lp737
(I160
I153
tp738
a(I153
I156
tp739
a(I156
I163
tp740
a(I163
I162
tp741
a(I162
I159
tp742
a(I159
I160
tp743
aa(lp744
(I51
I53
tp745
a(I53
I438
tp746
a(I438
I439
tp747
a(I439
I22
tp748
a(I22
I21
tp749
a(I21
I51
tp750
aa(lp751
(I463
I464
tp752
a(I464
I465
tp753
a(I465
I257
tp754
a(I257
I190
tp755
a(I190
I179
tp756
a(I179
I463
tp757
aa(lp758
(I418
I426
tp759
a(I426
I422
tp760
a(I422
I425
tp761
a(I425
I421
tp762
a(I421
I417
tp763
a(I417
I418
tp764
aa(lp765
(I76
I78
tp766
a(I78
I83
tp767
a(I83
I82
tp768
a(I82
I84
tp769
a(I84
I81
tp770
a(I81
I76
tp771
aa(lp772
(I65
I67
tp773
a(I67
I66
tp774
a(I66
I44
tp775
a(I44
I39
tp776
a(I39
I38
tp777
a(I38
I65
tp778
aa(lp779
(I144
I142
tp780
a(I142
I140
tp781
a(I140
I139
tp782
a(I139
I137
tp783
a(I137
I138
tp784
a(I138
I144
tp785
aa(lp786
(I269
I264
tp787
a(I264
I253
tp788
a(I253
I254
tp789
a(I254
I225
tp790
a(I225
I222
tp791
a(I222
I269
tp792
aa(lp793
(I45
I48
tp794
a(I48
I69
tp795
a(I69
I66
tp796
a(I66
I67
tp797
a(I67
I54
tp798
a(I54
I45
tp799
aa(lp800
(I371
I377
tp801
a(I377
I294
tp802
a(I294
I292
tp803
a(I292
I363
tp804
a(I363
I378
tp805
a(I378
I371
tp806
aa(lp807
(I168
I223
tp808
a(I223
I1
tp809
a(I1
I146
tp810
a(I146
I179
tp811
a(I179
I190
tp812
a(I190
I168
tp813
aa(lp814
(I324
I308
tp815
a(I308
I311
tp816
a(I311
I330
tp817
a(I330
I329
tp818
a(I329
I328
tp819
a(I328
I324
tp820
aa(lp821
(I362
I363
tp822
a(I363
I292
tp823
a(I292
I291
tp824
a(I291
I354
tp825
a(I354
I358
tp826
a(I358
I362
tp827
aa(lp828
(I101
I90
tp829
a(I90
I448
tp830
a(I448
I457
tp831
a(I457
I455
tp832
a(I455
I456
tp833
a(I456
I101
tp834
aa(lp835
(I451
I473
tp836
a(I473
I360
tp837
a(I360
I361
tp838
a(I361
I57
tp839
a(I57
I68
tp840
a(I68
I451
tp841
aa(lp842
(I36
I34
tp843
a(I34
I33
tp844
a(I33
I31
tp845
a(I31
I32
tp846
a(I32
I23
tp847
a(I23
I30
tp848
a(I30
I36
tp849
aa(lp850
(I366
I364
tp851
a(I364
I365
tp852
a(I365
I355
tp853
a(I355
I359
tp854
a(I359
I293
tp855
a(I293
I295
tp856
a(I295
I366
tp857
aa(lp858
(I274
I228
tp859
a(I228
I229
tp860
a(I229
I251
tp861
a(I251
I250
tp862
a(I250
I272
tp863
a(I272
I273
tp864
a(I273
I274
tp865
aa(lp866
(I199
I214
tp867
a(I214
I213
tp868
a(I213
I208
tp869
a(I208
I204
tp870
a(I204
I205
tp871
a(I205
I196
tp872
a(I196
I199
tp873
aa(lp874
(I480
I470
tp875
a(I470
I471
tp876
a(I471
I482
tp877
a(I482
I483
tp878
a(I483
I474
tp879
a(I474
I472
tp880
a(I472
I480
tp881
aa(lp882
(I20
I21
tp883
a(I21
I22
tp884
a(I22
I437
tp885
a(I437
I436
tp886
a(I436
I8
tp887
a(I8
I15
tp888
a(I15
I20
tp889
aa(lp890
(I181
I171
tp891
a(I171
I178
tp892
a(I178
I184
tp893
a(I184
I182
tp894
a(I182
I183
tp895
a(I183
I180
tp896
a(I180
I181
tp897
aa(lp898
(I18
I19
tp899
a(I19
I17
tp900
a(I17
I16
tp901
a(I16
I15
tp902
a(I15
I8
tp903
a(I8
I12
tp904
a(I12
I18
tp905
aa(lp906
(I283
I284
tp907
a(I284
I300
tp908
a(I300
I299
tp909
a(I299
I345
tp910
a(I345
I342
tp911
a(I342
I343
tp912
a(I343
I283
tp913
aa(lp914
(I56
I58
tp915
a(I58
I59
tp916
a(I59
I60
tp917
a(I60
I61
tp918
a(I61
I443
tp919
a(I443
I442
tp920
a(I442
I56
tp921
aa(lp922
(I67
I65
tp923
a(I65
I62
tp924
a(I62
I63
tp925
a(I63
I70
tp926
a(I70
I55
tp927
a(I55
I54
tp928
a(I54
I67
tp929
aa(lp930
(I84
I86
tp931
a(I86
I85
tp932
a(I85
I72
tp933
a(I72
I71
tp934
a(I71
I77
tp935
a(I77
I81
tp936
a(I81
I84
tp937
aa(lp938
(I49
I52
tp939
a(I52
I50
tp940
a(I50
I51
tp941
a(I51
I21
tp942
a(I21
I20
tp943
a(I20
I29
tp944
a(I29
I49
tp945
aa(lp946
(I217
I216
tp947
a(I216
I239
tp948
a(I239
I258
tp949
a(I258
I259
tp950
a(I259
I260
tp951
a(I260
I261
tp952
a(I261
I217
tp953
aa(lp954
(I238
I247
tp955
a(I247
I252
tp956
a(I252
I255
tp957
a(I255
I256
tp958
a(I256
I258
tp959
a(I258
I239
tp960
a(I239
I238
tp961
aa(lp962
(I416
I419
tp963
a(I419
I393
tp964
a(I393
I394
tp965
a(I394
I425
tp966
a(I425
I422
tp967
a(I422
I424
tp968
a(I424
I416
tp969
aa(lp970
(I320
I319
tp971
a(I319
I326
tp972
a(I326
I338
tp973
a(I338
I340
tp974
a(I340
I341
tp975
a(I341
I339
tp976
a(I339
I320
tp977
aa(lp978
(I99
I94
tp979
a(I94
I96
tp980
a(I96
I102
tp981
a(I102
I89
tp982
a(I89
I92
tp983
a(I92
I98
tp984
a(I98
I99
tp985
aa(lp986
(I350
I351
tp987
a(I351
I352
tp988
a(I352
I18
tp989
a(I18
I12
tp990
a(I12
I14
tp991
a(I14
I349
tp992
a(I349
I350
tp993
aa(lp994
(I130
I117
tp995
a(I117
I120
tp996
a(I120
I133
tp997
a(I133
I132
tp998
a(I132
I129
tp999
a(I129
I131
tp1000
a(I131
I130
tp1001
aa(lp1002
(I318
I343
tp1003
a(I343
I342
tp1004
a(I342
I344
tp1005
a(I344
I327
tp1006
a(I327
I322
tp1007
a(I322
I317
tp1008
a(I317
I318
tp1009
aa(lp1010
(I460
I461
tp1011
a(I461
I459
tp1012
a(I459
I458
tp1013
a(I458
I113
tp1014
a(I113
I101
tp1015
a(I101
I456
tp1016
a(I456
I460
tp1017
aa(lp1018
(I376
I382
tp1019
a(I382
I380
tp1020
a(I380
I381
tp1021
a(I381
I378
tp1022
a(I378
I363
tp1023
a(I363
I362
tp1024
a(I362
I376
tp1025
aa(lp1026
(I208
I213
tp1027
a(I213
I216
tp1028
a(I216
I217
tp1029
a(I217
I218
tp1030
a(I218
I215
tp1031
a(I215
I209
tp1032
a(I209
I208
tp1033
aa(lp1034
(I317
I322
tp1035
a(I322
I319
tp1036
a(I319
I320
tp1037
a(I320
I321
tp1038
a(I321
I306
tp1039
a(I306
I307
tp1040
a(I307
I316
tp1041
a(I316
I317
tp1042
aa(lp1043
(I59
I97
tp1044
a(I97
I99
tp1045
a(I99
I98
tp1046
a(I98
I88
tp1047
a(I88
I93
tp1048
a(I93
I100
tp1049
a(I100
I60
tp1050
a(I60
I59
tp1051
aa(lp1052
(I180
I183
tp1053
a(I183
I281
tp1054
a(I281
I280
tp1055
a(I280
I243
tp1056
a(I243
I214
tp1057
a(I214
I199
tp1058
a(I199
I200
tp1059
a(I200
I180
tp1060
aa(lp1061
(I73
I91
tp1062
a(I91
I95
tp1063
a(I95
I96
tp1064
a(I96
I94
tp1065
a(I94
I97
tp1066
a(I97
I59
tp1067
a(I59
I58
tp1068
a(I58
I73
tp1069
aa(lp1070
(I144
I136
tp1071
a(I136
I132
tp1072
a(I132
I133
tp1073
a(I133
I143
tp1074
a(I143
I145
tp1075
a(I145
I141
tp1076
a(I141
I142
tp1077
a(I142
I144
tp1078
aa(lp1079
(I203
I207
tp1080
a(I207
I195
tp1081
a(I195
I198
tp1082
a(I198
I206
tp1083
a(I206
I205
tp1084
a(I205
I204
tp1085
a(I204
I202
tp1086
a(I202
I203
tp1087
aa(lp1088
(I143
I133
tp1089
a(I133
I120
tp1090
a(I120
I128
tp1091
a(I128
I148
tp1092
a(I148
I149
tp1093
a(I149
I150
tp1094
a(I150
I147
tp1095
a(I147
I143
tp1096
aa(lp1097
(I371
I378
tp1098
a(I378
I381
tp1099
a(I381
I383
tp1100
a(I383
I384
tp1101
a(I384
I386
tp1102
a(I386
I385
tp1103
a(I385
I372
tp1104
a(I372
I371
tp1105
aa(lp1106
(I93
I83
tp1107
a(I83
I78
tp1108
a(I78
I80
tp1109
a(I80
I103
tp1110
a(I103
I104
tp1111
a(I104
I105
tp1112
a(I105
I100
tp1113
a(I100
I93
tp1114
aa(lp1115
(I266
I260
tp1116
a(I260
I259
tp1117
a(I259
I265
tp1118
a(I265
I263
tp1119
a(I263
I264
tp1120
a(I264
I269
tp1121
a(I269
I267
tp1122
a(I267
I266
tp1123
aa(lp1124
(I409
I408
tp1125
a(I408
I414
tp1126
a(I414
I420
tp1127
a(I420
I419
tp1128
a(I419
I416
tp1129
a(I416
I418
tp1130
a(I418
I417
tp1131
a(I417
I409
tp1132
aa(lp1133
(I411
I410
tp1134
a(I410
I408
tp1135
a(I408
I409
tp1136
a(I409
I391
tp1137
a(I391
I389
tp1138
a(I389
I402
tp1139
a(I402
I407
tp1140
a(I407
I411
tp1141
aa(lp1142
(I25
I39
tp1143
a(I39
I44
tp1144
a(I44
I47
tp1145
a(I47
I48
tp1146
a(I48
I45
tp1147
a(I45
I43
tp1148
a(I43
I28
tp1149
a(I28
I25
tp1150
aa(lp1151
(I241
I250
tp1152
a(I250
I251
tp1153
a(I251
I219
tp1154
a(I219
I227
tp1155
a(I227
I249
tp1156
a(I249
I248
tp1157
a(I248
I247
tp1158
a(I247
I238
tp1159
a(I238
I241
tp1160
aa(lp1161
(I188
I185
tp1162
a(I185
I181
tp1163
a(I181
I180
tp1164
a(I180
I200
tp1165
a(I200
I193
tp1166
a(I193
I191
tp1167
a(I191
I189
tp1168
a(I189
I187
tp1169
a(I187
I188
tp1170
aa(lp1171
(I195
I194
tp1172
a(I194
I192
tp1173
a(I192
I193
tp1174
a(I193
I200
tp1175
a(I200
I199
tp1176
a(I199
I196
tp1177
a(I196
I197
tp1178
a(I197
I198
tp1179
a(I198
I195
tp1180
aa(lp1181
(I428
I423
tp1182
a(I423
I430
tp1183
a(I430
I401
tp1184
a(I401
I412
tp1185
a(I412
I390
tp1186
a(I390
I346
tp1187
a(I346
I246
tp1188
a(I246
I312
tp1189
a(I312
I428
tp1190
aa(lp1191
(I159
I121
tp1192
a(I121
I122
tp1193
a(I122
I108
tp1194
a(I108
I110
tp1195
a(I110
I158
tp1196
a(I158
I152
tp1197
a(I152
I154
tp1198
a(I154
I160
tp1199
a(I160
I159
tp1200
aa(lp1201
(I55
I56
tp1202
a(I56
I442
tp1203
a(I442
I441
tp1204
a(I441
I52
tp1205
a(I52
I49
tp1206
a(I49
I43
tp1207
a(I43
I45
tp1208
a(I45
I54
tp1209
a(I54
I55
tp1210
aa(lp1211
(I325
I326
tp1212
a(I326
I319
tp1213
a(I319
I322
tp1214
a(I322
I327
tp1215
a(I327
I298
tp1216
a(I298
I297
tp1217
a(I297
I308
tp1218
a(I308
I324
tp1219
a(I324
I325
tp1220
aa(lp1221
(I244
I207
tp1222
a(I207
I203
tp1223
a(I203
I210
tp1224
a(I210
I211
tp1225
a(I211
I237
tp1226
a(I237
I236
tp1227
a(I236
I277
tp1228
a(I277
I245
tp1229
a(I245
I244
tp1230
aa(lp1231
(I309
I306
tp1232
a(I306
I321
tp1233
a(I321
I339
tp1234
a(I339
I341
tp1235
a(I341
I333
tp1236
a(I333
I332
tp1237
a(I332
I328
tp1238
a(I328
I329
tp1239
a(I329
I309
tp1240
aa(lp1241
(I75
I73
tp1242
a(I73
I58
tp1243
a(I58
I56
tp1244
a(I56
I55
tp1245
a(I55
I70
tp1246
a(I70
I71
tp1247
a(I71
I72
tp1248
a(I72
I74
tp1249
a(I74
I75
tp1250
aa(lp1251
(I427
I413
tp1252
a(I413
I415
tp1253
a(I415
I404
tp1254
a(I404
I403
tp1255
a(I403
I399
tp1256
a(I399
I386
tp1257
a(I386
I384
tp1258
a(I384
I398
tp1259
a(I398
I427
tp1260
aa(lp1261
(I243
I280
tp1262
a(I280
I169
tp1263
a(I169
I167
tp1264
a(I167
I177
tp1265
a(I177
I194
tp1266
a(I194
I195
tp1267
a(I195
I207
tp1268
a(I207
I244
tp1269
a(I244
I243
tp1270
aa(lp1271
(I454
I449
tp1272
a(I449
I450
tp1273
a(I450
I452
tp1274
a(I452
I447
tp1275
a(I447
I448
tp1276
a(I448
I90
tp1277
a(I90
I157
tp1278
a(I157
I453
tp1279
a(I453
I454
tp1280
aa(lp1281
(I273
I242
tp1282
a(I242
I245
tp1283
a(I245
I277
tp1284
a(I277
I230
tp1285
a(I230
I234
tp1286
a(I234
I276
tp1287
a(I276
I275
tp1288
a(I275
I274
tp1289
a(I274
I273
tp1290
aa(lp1291
(I298
I299
tp1292
a(I299
I300
tp1293
a(I300
I282
tp1294
a(I282
I289
tp1295
a(I289
I304
tp1296
a(I304
I302
tp1297
a(I302
I303
tp1298
a(I303
I297
tp1299
a(I297
I298
tp1300
aa(lp1301
(I223
I334
tp1302
a(I334
I429
tp1303
a(I429
I440
tp1304
a(I440
I473
tp1305
a(I473
I451
tp1306
a(I451
I462
tp1307
a(I462
I0
tp1308
a(I0
I112
tp1309
a(I112
I1
tp1310
a(I1
I223
tp1311
aa(lp1312
(I30
I16
tp1313
a(I16
I17
tp1314
a(I17
I155
tp1315
a(I155
I156
tp1316
a(I156
I153
tp1317
a(I153
I154
tp1318
a(I154
I152
tp1319
a(I152
I107
tp1320
a(I107
I36
tp1321
a(I36
I30
tp1322
aa(lp1323
(I35
I46
tp1324
a(I46
I24
tp1325
a(I24
I13
tp1326
a(I13
I2
tp1327
a(I2
I0
tp1328
a(I0
I462
tp1329
a(I462
I68
tp1330
a(I68
I57
tp1331
a(I57
I79
tp1332
a(I79
I35
tp1333
aa(lp1334
(I40
I42
tp1335
a(I42
I80
tp1336
a(I80
I78
tp1337
a(I78
I76
tp1338
a(I76
I77
tp1339
a(I77
I71
tp1340
a(I71
I70
tp1341
a(I70
I63
tp1342
a(I63
I64
tp1343
a(I64
I40
tp1344
aa(lp1345
(I184
I151
tp1346
a(I151
I150
tp1347
a(I150
I149
tp1348
a(I149
I165
tp1349
a(I165
I170
tp1350
a(I170
I169
tp1351
a(I169
I280
tp1352
a(I280
I281
tp1353
a(I281
I182
tp1354
a(I182
I184
tp1355
aa(lp1356
(I40
I41
tp1357
a(I41
I37
tp1358
a(I37
I38
tp1359
a(I38
I39
tp1360
a(I39
I25
tp1361
a(I25
I26
tp1362
a(I26
I31
tp1363
a(I31
I33
tp1364
a(I33
I42
tp1365
a(I42
I40
tp1366
aa(lp1367
(I15
I16
tp1368
a(I16
I30
tp1369
a(I30
I23
tp1370
a(I23
I27
tp1371
a(I27
I26
tp1372
a(I26
I25
tp1373
a(I25
I28
tp1374
a(I28
I29
tp1375
a(I29
I20
tp1376
a(I20
I15
tp1377
aa(lp1378
(I216
I213
tp1379
a(I213
I214
tp1380
a(I214
I243
tp1381
a(I243
I244
tp1382
a(I244
I245
tp1383
a(I245
I242
tp1384
a(I242
I240
tp1385
a(I240
I241
tp1386
a(I241
I238
tp1387
a(I238
I239
tp1388
a(I239
I216
tp1389
aa(lp1390
(I446
I166
tp1391
a(I166
I164
tp1392
a(I164
I165
tp1393
a(I165
I149
tp1394
a(I149
I148
tp1395
a(I148
I379
tp1396
a(I379
I357
tp1397
a(I357
I431
tp1398
a(I431
I432
tp1399
a(I432
I434
tp1400
a(I434
I446
tp1401
aa(lp1402
(I7
I4
tp1403
a(I4
I6
tp1404
a(I6
I9
tp1405
a(I9
I11
tp1406
a(I11
I10
tp1407
a(I10
I14
tp1408
a(I14
I12
tp1409
a(I12
I8
tp1410
a(I8
I436
tp1411
a(I436
I435
tp1412
a(I435
I7
tp1413
aa(lp1414
(I13
I157
tp1415
a(I157
I90
tp1416
a(I90
I101
tp1417
a(I101
I113
tp1418
a(I113
I135
tp1419
a(I135
I124
tp1420
a(I124
I146
tp1421
a(I146
I1
tp1422
a(I1
I112
tp1423
a(I112
I2
tp1424
a(I2
I13
tp1425
aa(lp1426
(I468
I449
tp1427
a(I449
I454
tp1428
a(I454
I479
tp1429
a(I479
I478
tp1430
a(I478
I472
tp1431
a(I472
I474
tp1432
a(I474
I476
tp1433
a(I476
I477
tp1434
a(I477
I475
tp1435
a(I475
I467
tp1436
a(I467
I468
tp1437
aa(lp1438
(I115
I106
tp1439
a(I106
I104
tp1440
a(I104
I103
tp1441
a(I103
I34
tp1442
a(I34
I36
tp1443
a(I36
I107
tp1444
a(I107
I109
tp1445
a(I109
I110
tp1446
a(I110
I108
tp1447
a(I108
I111
tp1448
a(I111
I114
tp1449
a(I114
I115
tp1450
aa(lp1451
(I440
I429
tp1452
a(I429
I353
tp1453
a(I353
I359
tp1454
a(I359
I355
tp1455
a(I355
I356
tp1456
a(I356
I358
tp1457
a(I358
I354
tp1458
a(I354
I35
tp1459
a(I35
I79
tp1460
a(I79
I361
tp1461
a(I361
I360
tp1462
a(I360
I440
tp1463
aa(lp1464
(I309
I310
tp1465
a(I310
I311
tp1466
a(I311
I308
tp1467
a(I308
I297
tp1468
a(I297
I303
tp1469
a(I303
I315
tp1470
a(I315
I314
tp1471
a(I314
I313
tp1472
a(I313
I305
tp1473
a(I305
I307
tp1474
a(I307
I306
tp1475
a(I306
I309
tp1476
aa(lp1477
(I11
I347
tp1478
a(I347
I348
tp1479
a(I348
I285
tp1480
a(I285
I283
tp1481
a(I283
I343
tp1482
a(I343
I318
tp1483
a(I318
I313
tp1484
a(I313
I314
tp1485
a(I314
I350
tp1486
a(I350
I349
tp1487
a(I349
I10
tp1488
a(I10
I11
tp1489
aa(lp1490
(I92
I89
tp1491
a(I89
I91
tp1492
a(I91
I73
tp1493
a(I73
I75
tp1494
a(I75
I87
tp1495
a(I87
I85
tp1496
a(I85
I86
tp1497
a(I86
I82
tp1498
a(I82
I83
tp1499
a(I83
I93
tp1500
a(I93
I88
tp1501
a(I88
I92
tp1502
aa(lp1503
(I162
I163
tp1504
a(I163
I155
tp1505
a(I155
I17
tp1506
a(I17
I19
tp1507
a(I19
I323
tp1508
a(I323
I235
tp1509
a(I235
I368
tp1510
a(I368
I379
tp1511
a(I379
I148
tp1512
a(I148
I128
tp1513
a(I128
I127
tp1514
a(I127
I162
tp1515
aa(lp1516
(I302
I304
tp1517
a(I304
I288
tp1518
a(I288
I296
tp1519
a(I296
I353
tp1520
a(I353
I429
tp1521
a(I429
I334
tp1522
a(I334
I212
tp1523
a(I212
I335
tp1524
a(I335
I323
tp1525
a(I323
I19
tp1526
a(I19
I18
tp1527
a(I18
I352
tp1528
a(I352
I302
tp1529
aa(lp1530
(I371
I372
tp1531
a(I372
I374
tp1532
a(I374
I375
tp1533
a(I375
I373
tp1534
a(I373
I376
tp1535
a(I376
I362
tp1536
a(I362
I358
tp1537
a(I358
I356
tp1538
a(I356
I370
tp1539
a(I370
I367
tp1540
a(I367
I369
tp1541
a(I369
I377
tp1542
a(I377
I371
tp1543
aa(lp1544
(I120
I117
tp1545
a(I117
I118
tp1546
a(I118
I119
tp1547
a(I119
I116
tp1548
a(I116
I106
tp1549
a(I106
I115
tp1550
a(I115
I125
tp1551
a(I125
I123
tp1552
a(I123
I126
tp1553
a(I126
I122
tp1554
a(I122
I121
tp1555
a(I121
I127
tp1556
a(I127
I128
tp1557
a(I128
I120
tp1558
aa(lp1559
(I4
I5
tp1560
a(I5
I423
tp1561
a(I423
I428
tp1562
a(I428
I301
tp1563
a(I301
I290
tp1564
a(I290
I481
tp1565
a(I481
I478
tp1566
a(I478
I479
tp1567
a(I479
I453
tp1568
a(I453
I157
tp1569
a(I157
I13
tp1570
a(I13
I24
tp1571
a(I24
I6
tp1572
a(I6
I4
tp1573
aa(lp1574
(I391
I392
tp1575
a(I392
I394
tp1576
a(I394
I393
tp1577
a(I393
I395
tp1578
a(I395
I387
tp1579
a(I387
I380
tp1580
a(I380
I382
tp1581
a(I382
I373
tp1582
a(I373
I375
tp1583
a(I375
I397
tp1584
a(I397
I396
tp1585
a(I396
I388
tp1586
a(I388
I389
tp1587
a(I389
I391
tp1588
aa(lp1589
(I268
I290
tp1590
a(I290
I301
tp1591
a(I301
I312
tp1592
a(I312
I246
tp1593
a(I246
I224
tp1594
a(I224
I235
tp1595
a(I235
I323
tp1596
a(I323
I335
tp1597
a(I335
I201
tp1598
a(I201
I168
tp1599
a(I168
I190
tp1600
a(I190
I257
tp1601
a(I257
I279
tp1602
a(I279
I268
tp1603
aa(lp1604
(I439
I438
tp1605
a(I438
I441
tp1606
a(I441
I442
tp1607
a(I442
I443
tp1608
a(I443
I444
tp1609
a(I444
I445
tp1610
a(I445
I434
tp1611
a(I434
I432
tp1612
a(I432
I433
tp1613
a(I433
I401
tp1614
a(I401
I430
tp1615
a(I430
I435
tp1616
a(I435
I436
tp1617
a(I436
I437
tp1618
a(I437
I439
tp1619
aa(lp1620
(I467
I471
tp1621
a(I471
I470
tp1622
a(I470
I268
tp1623
a(I268
I279
tp1624
a(I279
I465
tp1625
a(I465
I464
tp1626
a(I464
I459
tp1627
a(I459
I461
tp1628
a(I461
I466
tp1629
a(I466
I455
tp1630
a(I455
I457
tp1631
a(I457
I447
tp1632
a(I447
I452
tp1633
a(I452
I469
tp1634
a(I469
I468
tp1635
a(I468
I467
tp1636
aa(lp1637
(I215
I218
tp1638
a(I218
I220
tp1639
a(I220
I221
tp1640
a(I221
I222
tp1641
a(I222
I225
tp1642
a(I225
I226
tp1643
a(I226
I227
tp1644
a(I227
I219
tp1645
a(I219
I229
tp1646
a(I229
I228
tp1647
a(I228
I231
tp1648
a(I231
I233
tp1649
a(I233
I232
tp1650
a(I232
I234
tp1651
a(I234
I230
tp1652
a(I230
I236
tp1653
a(I236
I237
tp1654
a(I237
I215
tp1655
aa(lp1656
(I9
I6
tp1657
a(I6
I24
tp1658
a(I24
I46
tp1659
a(I46
I291
tp1660
a(I291
I292
tp1661
a(I292
I294
tp1662
a(I294
I295
tp1663
a(I295
I293
tp1664
a(I293
I296
tp1665
a(I296
I288
tp1666
a(I288
I289
tp1667
a(I289
I282
tp1668
a(I282
I284
tp1669
a(I284
I283
tp1670
a(I283
I285
tp1671
a(I285
I287
tp1672
a(I287
I286
tp1673
a(I286
I9
tp1674
aa(lp1675
(I141
I145
tp1676
a(I145
I178
tp1677
a(I178
I171
tp1678
a(I171
I172
tp1679
a(I172
I173
tp1680
a(I173
I174
tp1681
a(I174
I175
tp1682
a(I175
I176
tp1683
a(I176
I177
tp1684
a(I177
I167
tp1685
a(I167
I166
tp1686
a(I166
I446
tp1687
a(I446
I445
tp1688
a(I445
I444
tp1689
a(I444
I61
tp1690
a(I61
I60
tp1691
a(I60
I100
tp1692
a(I100
I105
tp1693
a(I105
I116
tp1694
a(I116
I119
tp1695
a(I119
I141
tp1696
aa.