(lp0
(lp1
(I167
I174
tp2
a(I174
I175
tp3
a(I175
I167
tp4
aa(lp5
(I38
I95
tp6
a(I95
I39
tp7
a(I39
I38
tp8
aa(lp9
(I190
I189
tp10
a(I189
I203
tp11
a(I203
I190
tp12
aa(lp13
(I63
I27
tp14
a(I27
I25
tp15
a(I25
I63
tp16
aa(lp17
(I145
I148
tp18
a(I148
I146
tp19
a(I146
I145
tp20
aa(lp21
(I65
I64
tp22
a(I64
I69
tp23
a(I69
I65
tp24
aa(lp25
(I18
I12
tp26
a(I12
I11
tp27
a(I11
I18
tp28
aa(lp29
(I166
I156
tp30
a(I156
I155
tp31
a(I155
I166
tp32
aa(lp33
(I52
I50
tp34
a(I50
I58
tp35
a(I58
I52
tp36
aa(lp37
(I103
I99
tp38
a(I99
I97
tp39
a(I97
I103
tp40
aa(lp41
(I104
I86
tp42
a(I86
I84
tp43
a(I84
I104
tp44
aa(lp45
(I61
I60
tp46
a(I60
I59
tp47
a(I59
I61
tp48
aa(lp49
(I126
I125
tp50
a(I125
I128
tp51
a(I128
I126
tp52
aa(lp53
(I57
I46
tp54
a(I46
I131
tp55
a(I131
I57
tp56
aa(lp57
(I193
I192
tp58
a(I192
I196
tp59
a(I196
I193
tp60
aa(lp61
(I210
I215
tp62
a(I215
I212
tp63
a(I212
I210
tp64
aa(lp65
(I35
I13
tp66
a(I13
I90
tp67
a(I90
I35
tp68
aa(lp69
(I147
I152
tp70
a(I152
I149
tp71
a(I149
I147
tp72
aa(lp73
(I188
I186
tp74
a(I186
I197
tp75
a(I197
I188
tp76
aa(lp77
(I166
I155
tp78
a(I155
I164
tp79
a(I164
I165
tp80
a(I165
I166
tp81
aa(lp82
(I74
I75
tp83
a(I75
I19
tp84
a(I19
I17
tp85
a(I17
I74
tp86
aa(lp87
(I169
I177
tp88
a(I177
I176
tp89
a(I176
I168
tp90
a(I168
I169
tp91
aa(lp92
(I2
I130
tp93
a(I130
I129
tp94
a(I129
I205
tp95
a(I205
I2
tp96
aa(lp97
(I192
I163
tp98
a(I163
I162
tp99
a(I162
I196
tp100
a(I196
I192
tp101
aa(lp102
(I78
I21
tp103
a(I21
I20
tp104
a(I20
I77
tp105
a(I77
I78
tp106
aa(lp107
(I40
I49
tp108
a(I49
I54
tp109
a(I54
I41
tp110
a(I41
I40
tp111
aa(lp112
(I38
I37
tp113
a(I37
I94
tp114
a(I94
I95
tp115
a(I95
I38
tp116
aa(lp117
(I157
I167
tp118
a(I167
I175
tp119
a(I175
I158
tp120
a(I158
I157
tp121
aa(lp122
(I111
I209
tp123
a(I209
I208
tp124
a(I208
I120
tp125
a(I120
I111
tp126
aa(lp127
(I117
I199
tp128
a(I199
I201
tp129
a(I201
I118
tp130
a(I118
I117
tp131
aa(lp132
(I127
I128
tp133
a(I128
I125
tp134
a(I125
I123
tp135
a(I123
I127
tp136
aa(lp137
(I177
I178
tp138
a(I178
I179
tp139
a(I179
I176
tp140
a(I176
I177
tp141
aa(lp142
(I86
I104
tp143
a(I104
I92
tp144
a(I92
I85
tp145
a(I85
I86
tp146
aa(lp147
(I53
I45
tp148
a(I45
I44
tp149
a(I44
I83
tp150
a(I83
I53
tp151
aa(lp152
(I88
I91
tp153
a(I91
I96
tp154
a(I96
I89
tp155
a(I89
I88
tp156
aa(lp157
(I102
I100
tp158
a(I100
I105
tp159
a(I105
I106
tp160
a(I106
I102
tp161
aa(lp162
(I215
I214
tp163
a(I214
I211
tp164
a(I211
I212
tp165
a(I212
I215
tp166
aa(lp167
(I123
I122
tp168
a(I122
I121
tp169
a(I121
I127
tp170
a(I127
I123
tp171
aa(lp172
(I7
I3
tp173
a(I3
I213
tp174
a(I213
I204
tp175
a(I204
I206
tp176
a(I206
I7
tp177
aa(lp178
(I108
I107
tp179
a(I107
I129
tp180
a(I129
I130
tp181
a(I130
I109
tp182
a(I109
I108
tp183
aa(lp184
(I73
I72
tp185
a(I72
I82
tp186
a(I82
I87
tp187
a(I87
I80
tp188
a(I80
I73
tp189
aa(lp190
(I36
I34
tp191
a(I34
I92
tp192
a(I92
I104
tp193
a(I104
I84
tp194
a(I84
I36
tp195
aa(lp196
(I159
I136
tp197
a(I136
I135
tp198
a(I135
I185
tp199
a(I185
I191
tp200
a(I191
I159
tp201
aa(lp202
(I173
I171
tp203
a(I171
I211
tp204
a(I211
I214
tp205
a(I214
I180
tp206
a(I180
I173
tp207
aa(lp208
(I116
I118
tp209
a(I118
I201
tp210
a(I201
I198
tp211
a(I198
I15
tp212
a(I15
I116
tp213
aa(lp214
(I143
I142
tp215
a(I142
I141
tp216
a(I141
I137
tp217
a(I137
I138
tp218
a(I138
I143
tp219
aa(lp220
(I156
I166
tp221
a(I166
I165
tp222
a(I165
I154
tp223
a(I154
I153
tp224
a(I153
I156
tp225
aa(lp226
(I205
I129
tp227
a(I129
I107
tp228
a(I107
I16
tp229
a(I16
I194
tp230
a(I194
I205
tp231
aa(lp232
(I43
I42
tp233
a(I42
I60
tp234
a(I60
I61
tp235
a(I61
I47
tp236
a(I47
I43
tp237
aa(lp238
(I76
I77
tp239
a(I77
I20
tp240
a(I20
I19
tp241
a(I19
I75
tp242
a(I75
I76
tp243
aa(lp244
(I75
I74
tp245
a(I74
I70
tp246
a(I70
I71
tp247
a(I71
I76
tp248
a(I76
I75
tp249
aa(lp250
(I132
I133
tp251
a(I133
I140
tp252
a(I140
I138
tp253
a(I138
I137
tp254
a(I137
I132
tp255
aa(lp256
(I4
I5
tp257
a(I5
I6
tp258
a(I6
I182
tp259
a(I182
I181
tp260
a(I181
I4
tp261
aa(lp262
(I116
I110
tp263
a(I110
I119
tp264
a(I119
I117
tp265
a(I117
I118
tp266
a(I118
I116
tp267
aa(lp268
(I193
I196
tp269
a(I196
I162
tp270
a(I162
I159
tp271
a(I159
I191
tp272
a(I191
I193
tp273
aa(lp274
(I202
I203
tp275
a(I203
I189
tp276
a(I189
I124
tp277
a(I124
I113
tp278
a(I113
I202
tp279
aa(lp280
(I48
I62
tp281
a(I62
I63
tp282
a(I63
I25
tp283
a(I25
I23
tp284
a(I23
I48
tp285
aa(lp286
(I141
I79
tp287
a(I79
I68
tp288
a(I68
I132
tp289
a(I132
I137
tp290
a(I137
I141
tp291
aa(lp292
(I37
I29
tp293
a(I29
I28
tp294
a(I28
I93
tp295
a(I93
I94
tp296
a(I94
I37
tp297
aa(lp298
(I130
I2
tp299
a(I2
I172
tp300
a(I172
I161
tp301
a(I161
I109
tp302
a(I109
I130
tp303
aa(lp304
(I30
I31
tp305
a(I31
I105
tp306
a(I105
I100
tp307
a(I100
I98
tp308
a(I98
I30
tp309
aa(lp310
(I81
I80
tp311
a(I80
I87
tp312
a(I87
I88
tp313
a(I88
I89
tp314
a(I89
I81
tp315
aa(lp316
(I207
I200
tp317
a(I200
I199
tp318
a(I199
I117
tp319
a(I117
I119
tp320
a(I119
I207
tp321
aa(lp322
(I64
I51
tp323
a(I51
I53
tp324
a(I53
I83
tp325
a(I83
I67
tp326
a(I67
I69
tp327
a(I69
I64
tp328
aa(lp329
(I146
I144
tp330
a(I144
I143
tp331
a(I143
I138
tp332
a(I138
I140
tp333
a(I140
I145
tp334
a(I145
I146
tp335
aa(lp336
(I205
I194
tp337
a(I194
I183
tp338
a(I183
I0
tp339
a(I0
I172
tp340
a(I172
I2
tp341
a(I2
I205
tp342
aa(lp343
(I54
I55
tp344
a(I55
I59
tp345
a(I59
I60
tp346
a(I60
I42
tp347
a(I42
I41
tp348
a(I41
I54
tp349
aa(lp350
(I55
I54
tp351
a(I54
I49
tp352
a(I49
I52
tp353
a(I52
I58
tp354
a(I58
I56
tp355
a(I56
I55
tp356
aa(lp357
(I24
I142
tp358
a(I142
I143
tp359
a(I143
I144
tp360
a(I144
I112
tp361
a(I112
I1
tp362
a(I1
I24
tp363
aa(lp364
(I74
I17
tp365
a(I17
I18
tp366
a(I18
I11
tp367
a(I11
I10
tp368
a(I10
I70
tp369
a(I70
I74
tp370
aa(lp371
(I43
I47
tp372
a(I47
I48
tp373
a(I48
I23
tp374
a(I23
I22
tp375
a(I22
I32
tp376
a(I32
I43
tp377
aa(lp378
(I126
I128
tp379
a(I128
I127
tp380
a(I127
I121
tp381
a(I121
I115
tp382
a(I115
I114
tp383
a(I114
I126
tp384
aa(lp385
(I90
I79
tp386
a(I79
I141
tp387
a(I141
I142
tp388
a(I142
I24
tp389
a(I24
I35
tp390
a(I35
I90
tp391
aa(lp392
(I125
I126
tp393
a(I126
I114
tp394
a(I114
I111
tp395
a(I111
I120
tp396
a(I120
I122
tp397
a(I122
I123
tp398
a(I123
I125
tp399
aa(lp400
(I77
I76
tp401
a(I76
I71
tp402
a(I71
I73
tp403
a(I73
I80
tp404
a(I80
I81
tp405
a(I81
I78
tp406
a(I78
I77
tp407
aa(lp408
(I134
I133
tp409
a(I133
I132
tp410
a(I132
I68
tp411
a(I68
I101
tp412
a(I101
I135
tp413
a(I135
I136
tp414
a(I136
I134
tp415
aa(lp416
(I139
I149
tp417
a(I149
I152
tp418
a(I152
I151
tp419
a(I151
I153
tp420
a(I153
I154
tp421
a(I154
I150
tp422
a(I150
I139
tp423
aa(lp424
(I72
I73
tp425
a(I73
I71
tp426
a(I71
I70
tp427
a(I70
I10
tp428
a(I10
I9
tp429
a(I9
I66
tp430
a(I66
I72
tp431
aa(lp432
(I161
I172
tp433
a(I172
I0
tp434
a(I0
I1
tp435
a(I1
I112
tp436
a(I112
I139
tp437
a(I139
I150
tp438
a(I150
I161
tp439
aa(lp440
(I146
I148
tp441
a(I148
I147
tp442
a(I147
I149
tp443
a(I149
I139
tp444
a(I139
I112
tp445
a(I112
I144
tp446
a(I144
I146
tp447
aa(lp448
(I51
I50
tp449
a(I50
I52
tp450
a(I52
I49
tp451
a(I49
I40
tp452
a(I40
I45
tp453
a(I45
I53
tp454
a(I53
I51
tp455
aa(lp456
(I55
I56
tp457
a(I56
I62
tp458
a(I62
I48
tp459
a(I48
I47
tp460
a(I47
I61
tp461
a(I61
I59
tp462
a(I59
I55
tp463
aa(lp464
(I69
I67
tp465
a(I67
I66
tp466
a(I66
I9
tp467
a(I9
I8
tp468
a(I8
I26
tp469
a(I26
I65
tp470
a(I65
I69
tp471
aa(lp472
(I105
I31
tp473
a(I31
I14
tp474
a(I14
I16
tp475
a(I16
I107
tp476
a(I107
I108
tp477
a(I108
I106
tp478
a(I106
I105
tp479
aa(lp480
(I21
I6
tp481
a(I6
I5
tp482
a(I5
I12
tp483
a(I12
I18
tp484
a(I18
I17
tp485
a(I17
I19
tp486
a(I19
I20
tp487
a(I20
I21
tp488
aa(lp489
(I148
I145
tp490
a(I145
I140
tp491
a(I140
I133
tp492
a(I133
I134
tp493
a(I134
I151
tp494
a(I151
I152
tp495
a(I152
I147
tp496
a(I147
I148
tp497
aa(lp498
(I120
I208
tp499
a(I208
I207
tp500
a(I207
I119
tp501
a(I119
I110
tp502
a(I110
I115
tp503
a(I115
I121
tp504
a(I121
I122
tp505
a(I122
I120
tp506
aa(lp507
(I40
I41
tp508
a(I41
I42
tp509
a(I42
I43
tp510
a(I43
I32
tp511
a(I32
I33
tp512
a(I33
I44
tp513
a(I44
I45
tp514
a(I45
I40
tp515
aa(lp516
(I179
I178
tp517
a(I178
I184
tp518
a(I184
I103
tp519
a(I103
I97
tp520
a(I97
I98
tp521
a(I98
I100
tp522
a(I100
I102
tp523
a(I102
I179
tp524
aa(lp525
(I180
I181
tp526
a(I181
I182
tp527
a(I182
I184
tp528
a(I184
I178
tp529
a(I178
I177
tp530
a(I177
I169
tp531
a(I169
I173
tp532
a(I173
I180
tp533
aa(lp534
(I24
I1
tp535
a(I1
I0
tp536
a(I0
I183
tp537
a(I183
I46
tp538
a(I46
I57
tp539
a(I57
I13
tp540
a(I13
I35
tp541
a(I35
I24
tp542
aa(lp543
(I98
I97
tp544
a(I97
I99
tp545
a(I99
I96
tp546
a(I96
I91
tp547
a(I91
I93
tp548
a(I93
I28
tp549
a(I28
I30
tp550
a(I30
I98
tp551
aa(lp552
(I171
I170
tp553
a(I170
I195
tp554
a(I195
I204
tp555
a(I204
I213
tp556
a(I213
I210
tp557
a(I210
I212
tp558
a(I212
I211
tp559
a(I211
I171
tp560
aa(lp561
(I210
I213
tp562
a(I213
I3
tp563
a(I3
I4
tp564
a(I4
I181
tp565
a(I181
I180
tp566
a(I180
I214
tp567
a(I214
I215
tp568
a(I215
I210
tp569
aa(lp570
(I101
I124
tp571
a(I124
I189
tp572
a(I189
I190
tp573
a(I190
I186
tp574
a(I186
I188
tp575
a(I188
I187
tp576
a(I187
I185
tp577
a(I185
I135
tp578
a(I135
I101
tp579
aa(lp580
(I170
I171
tp581
a(I171
I173
tp582
a(I173
I169
tp583
a(I169
I168
tp584
a(I168
I174
tp585
a(I174
I167
tp586
a(I167
I157
tp587
a(I157
I160
tp588
a(I160
I170
tp589
aa(lp590
(I202
I198
tp591
a(I198
I201
tp592
a(I201
I199
tp593
a(I199
I200
tp594
a(I200
I197
tp595
a(I197
I186
tp596
a(I186
I190
tp597
a(I190
I203
tp598
a(I203
I202
tp599
aa(lp600
(I101
I68
tp601
a(I68
I79
tp602
a(I79
I90
tp603
a(I90
I13
tp604
a(I13
I57
tp605
a(I57
I131
tp606
a(I131
I113
tp607
a(I113
I124
tp608
a(I124
I101
tp609
aa(lp610
(I39
I34
tp611
a(I34
I36
tp612
a(I36
I33
tp613
a(I33
I32
tp614
a(I32
I22
tp615
a(I22
I29
tp616
a(I29
I37
tp617
a(I37
I38
tp618
a(I38
I39
tp619
aa(lp620
(I7
I206
tp621
a(I206
I209
tp622
a(I209
I111
tp623
a(I111
I114
tp624
a(I114
I115
tp625
a(I115
I110
tp626
a(I110
I116
tp627
a(I116
I15
tp628
a(I15
I7
tp629
aa(lp630
(I192
I193
tp631
a(I193
I191
tp632
a(I191
I185
tp633
a(I185
I187
tp634
a(I187
I195
tp635
a(I195
I170
tp636
a(I170
I160
tp637
a(I160
I163
tp638
a(I163
I192
tp639
aa(lp640
(I21
I78
tp641
a(I78
I81
tp642
a(I81
I89
tp643
a(I89
I96
tp644
a(I96
I99
tp645
a(I99
I103
tp646
a(I103
I184
tp647
a(I184
I182
tp648
a(I182
I6
tp649
a(I6
I21
tp650
aa(lp651
(I56
I58
tp652
a(I58
I50
tp653
a(I50
I51
tp654
a(I51
I64
tp655
a(I64
I65
tp656
a(I65
I26
tp657
a(I26
I27
tp658
a(I27
I63
tp659
a(I63
I62
tp660
a(I62
I56
tp661
aa(lp662
(I188
I197
tp663
a(I197
I200
tp664
a(I200
I207
tp665
a(I207
I208
tp666
a(I208
I209
tp667
a(I209
I206
tp668
a(I206
I204
tp669
a(I204
I195
tp670
a(I195
I187
tp671
a(I187
I188
tp672
aa(lp673
(I14
I31
tp674
a(I31
I30
tp675
a(I30
I28
tp676
a(I28
I29
tp677
a(I29
I22
tp678
a(I22
I23
tp679
a(I23
I25
tp680
a(I25
I27
tp681
a(I27
I26
tp682
a(I26
I8
tp683
a(I8
I14
tp684
aa(lp685
(I33
I36
tp686
a(I36
I84
tp687
a(I84
I86
tp688
a(I86
I85
tp689
a(I85
I82
tp690
a(I82
I72
tp691
a(I72
I66
tp692
a(I66
I67
tp693
a(I67
I83
tp694
a(I83
I44
tp695
a(I44
I33
tp696
aa(lp697
(I91
I88
tp698
a(I88
I87
tp699
a(I87
I82
tp700
a(I82
I85
tp701
a(I85
I92
tp702
a(I92
I34
tp703
a(I34
I39
tp704
a(I39
I95
tp705
a(I95
I94
tp706
a(I94
I93
tp707
a(I93
I91
tp708
aa(lp709
(I162
I163
tp710
a(I163
I160
tp711
a(I160
I157
tp712
a(I157
I158
tp713
a(I158
I164
tp714
a(I164
I155
tp715
a(I155
I156
tp716
a(I156
I153
tp717
a(I153
I151
tp718
a(I151
I134
tp719
a(I134
I136
tp720
a(I136
I159
tp721
a(I159
I162
tp722
aa(lp723
(I161
I150
tp724
a(I150
I154
tp725
a(I154
I165
tp726
a(I165
I164
tp727
a(I164
I158
tp728
a(I158
I175
tp729
a(I175
I174
tp730
a(I174
I168
tp731
a(I168
I176
tp732
a(I176
I179
tp733
a(I179
I102
tp734
a(I102
I106
tp735
a(I106
I108
tp736
a(I108
I109
tp737
a(I109
I161
tp738
aa(lp739
(I198
I202
tp740
a(I202
I113
tp741
a(I113
I131
tp742
a(I131
I46
tp743
a(I46
I183
tp744
a(I183
I194
tp745
a(I194
I16
tp746
a(I16
I14
tp747
a(I14
I8
tp748
a(I8
I9
tp749
a(I9
I10
tp750
a(I10
I11
tp751
a(I11
I12
tp752
a(I12
I5
tp753
a(I5
I4
tp754
a(I4
I3
tp755
a(I3
I7
tp756
a(I7
I15
tp757
a(I15
I198
tp758
aa.