(lp0
(lp1
(I57
I61
tp2
a(I61
I70
tp3
a(I70
I67
tp4
a(I67
I72
tp5
a(I72
I57
tp6
aa(lp7
(I73
I72
tp8
a(I72
I67
tp9
a(I67
I68
tp10
a(I68
I76
tp11
a(I76
I73
tp12
aa(lp13
(I72
I73
tp14
a(I73
I74
tp15
a(I74
I75
tp16
a(I75
I57
tp17
a(I57
I72
tp18
aa(lp19
(I2
I103
tp20
a(I103
I82
tp21
a(I82
I60
tp22
a(I60
I7
tp23
a(I7
I2
tp24
aa(lp25
(I92
I82
tp26
a(I82
I103
tp27
a(I103
I102
tp28
a(I102
I101
tp29
a(I101
I92
tp30
aa(lp31
(I8
I7
tp32
a(I7
I60
tp33
a(I60
I19
tp34
a(I19
I9
tp35
a(I9
I8
tp36
aa(lp37
(I21
I97
tp38
a(I97
I98
tp39
a(I98
I24
tp40
a(I24
I20
tp41
a(I20
I21
tp42
aa(lp43
(I39
I40
tp44
a(I40
I46
tp45
a(I46
I50
tp46
a(I50
I41
tp47
a(I41
I39
tp48
aa(lp49
(I91
I70
tp50
a(I70
I61
tp51
a(I61
I64
tp52
a(I64
I65
tp53
a(I65
I91
tp54
aa(lp55
(I96
I97
tp56
a(I97
I21
tp57
a(I21
I33
tp58
a(I33
I99
tp59
a(I99
I96
tp60
aa(lp61
(I65
I89
tp62
a(I89
I87
tp63
a(I87
I90
tp64
a(I90
I91
tp65
a(I91
I65
tp66
aa(lp67
(I76
I77
tp68
a(I77
I78
tp69
a(I78
I74
tp70
a(I74
I73
tp71
a(I73
I76
tp72
aa(lp73
(I84
I59
tp74
a(I59
I79
tp75
a(I79
I81
tp76
a(I81
I83
tp77
a(I83
I84
tp78
aa(lp79
(I26
I32
tp80
a(I32
I22
tp81
a(I22
I95
tp82
a(I95
I94
tp83
a(I94
I26
tp84
aa(lp85
(I30
I23
tp86
a(I23
I32
tp87
a(I32
I26
tp88
a(I26
I25
tp89
a(I25
I30
tp90
aa(lp91
(I16
I22
tp92
a(I22
I32
tp93
a(I32
I23
tp94
a(I23
I17
tp95
a(I17
I16
tp96
aa(lp97
(I17
I23
tp98
a(I23
I30
tp99
a(I30
I34
tp100
a(I34
I18
tp101
a(I18
I17
tp102
aa(lp103
(I1
I3
tp104
a(I3
I102
tp105
a(I102
I103
tp106
a(I103
I2
tp107
a(I2
I1
tp108
aa(lp109
(I37
I36
tp110
a(I36
I93
tp111
a(I93
I44
tp112
a(I44
I42
tp113
a(I42
I37
tp114
aa(lp115
(I78
I81
tp116
a(I81
I79
tp117
a(I79
I75
tp118
a(I75
I74
tp119
a(I74
I78
tp120
aa(lp121
(I78
I77
tp122
a(I77
I88
tp123
a(I88
I83
tp124
a(I83
I81
tp125
a(I81
I78
tp126
aa(lp127
(I102
I3
tp128
a(I3
I5
tp129
a(I5
I4
tp130
a(I4
I101
tp131
a(I101
I102
tp132
aa(lp133
(I63
I56
tp134
a(I56
I100
tp135
a(I100
I80
tp136
a(I80
I0
tp137
a(I0
I63
tp138
aa(lp139
(I16
I17
tp140
a(I17
I18
tp141
a(I18
I13
tp142
a(I13
I15
tp143
a(I15
I16
tp144
aa(lp145
(I91
I90
tp146
a(I90
I68
tp147
a(I68
I67
tp148
a(I67
I70
tp149
a(I70
I91
tp150
aa(lp151
(I15
I13
tp152
a(I13
I11
tp153
a(I11
I12
tp154
a(I12
I14
tp155
a(I14
I15
tp156
aa(lp157
(I52
I85
tp158
a(I85
I62
tp159
a(I62
I54
tp160
a(I54
I53
tp161
a(I53
I52
tp162
aa(lp163
(I55
I40
tp164
a(I40
I39
tp165
a(I39
I38
tp166
a(I38
I45
tp167
a(I45
I55
tp168
aa(lp169
(I1
I2
tp170
a(I2
I7
tp171
a(I7
I8
tp172
a(I8
I6
tp173
a(I6
I1
tp174
aa(lp175
(I5
I0
tp176
a(I0
I80
tp177
a(I80
I29
tp178
a(I29
I4
tp179
a(I4
I5
tp180
aa(lp181
(I95
I22
tp182
a(I22
I16
tp183
a(I16
I15
tp184
a(I15
I14
tp185
a(I14
I95
tp186
aa(lp187
(I77
I76
tp188
a(I76
I68
tp189
a(I68
I90
tp190
a(I90
I87
tp191
a(I87
I88
tp192
a(I88
I77
tp193
aa(lp194
(I101
I4
tp195
a(I4
I29
tp196
a(I29
I96
tp197
a(I96
I99
tp198
a(I99
I92
tp199
a(I92
I101
tp200
aa(lp201
(I51
I50
tp202
a(I50
I46
tp203
a(I46
I49
tp204
a(I49
I52
tp205
a(I52
I53
tp206
a(I53
I51
tp207
aa(lp208
(I80
I100
tp209
a(I100
I98
tp210
a(I98
I97
tp211
a(I97
I96
tp212
a(I96
I29
tp213
a(I29
I80
tp214
aa(lp215
(I35
I34
tp216
a(I34
I30
tp217
a(I30
I25
tp218
a(I25
I28
tp219
a(I28
I31
tp220
a(I31
I35
tp221
aa(lp222
(I84
I83
tp223
a(I83
I88
tp224
a(I88
I87
tp225
a(I87
I89
tp226
a(I89
I86
tp227
a(I86
I84
tp228
aa(lp229
(I40
I55
tp230
a(I55
I47
tp231
a(I47
I48
tp232
a(I48
I49
tp233
a(I49
I46
tp234
a(I46
I40
tp235
aa(lp236
(I36
I37
tp237
a(I37
I38
tp238
a(I38
I39
tp239
a(I39
I41
tp240
a(I41
I27
tp241
a(I27
I36
tp242
aa(lp243
(I21
I20
tp244
a(I20
I10
tp245
a(I10
I9
tp246
a(I9
I19
tp247
a(I19
I33
tp248
a(I33
I21
tp249
aa(lp250
(I8
I9
tp251
a(I9
I10
tp252
a(I10
I66
tp253
a(I66
I58
tp254
a(I58
I6
tp255
a(I6
I8
tp256
aa(lp257
(I89
I65
tp258
a(I65
I64
tp259
a(I64
I62
tp260
a(I62
I85
tp261
a(I85
I86
tp262
a(I86
I89
tp263
aa(lp264
(I60
I82
tp265
a(I82
I92
tp266
a(I92
I99
tp267
a(I99
I33
tp268
a(I33
I19
tp269
a(I19
I60
tp270
aa(lp271
(I66
I10
tp272
a(I10
I20
tp273
a(I20
I24
tp274
a(I24
I12
tp275
a(I12
I11
tp276
a(I11
I69
tp277
a(I69
I66
tp278
aa(lp279
(I26
I94
tp280
a(I94
I93
tp281
a(I93
I36
tp282
a(I36
I27
tp283
a(I27
I28
tp284
a(I28
I25
tp285
a(I25
I26
tp286
aa(lp287
(I34
I35
tp288
a(I35
I71
tp289
a(I71
I69
tp290
a(I69
I11
tp291
a(I11
I13
tp292
a(I13
I18
tp293
a(I18
I34
tp294
aa(lp295
(I85
I52
tp296
a(I52
I49
tp297
a(I49
I48
tp298
a(I48
I59
tp299
a(I59
I84
tp300
a(I84
I86
tp301
a(I86
I85
tp302
aa(lp303
(I1
I6
tp304
a(I6
I58
tp305
a(I58
I63
tp306
a(I63
I0
tp307
a(I0
I5
tp308
a(I5
I3
tp309
a(I3
I1
tp310
aa(lp311
(I45
I43
tp312
a(I43
I51
tp313
a(I51
I53
tp314
a(I53
I54
tp315
a(I54
I47
tp316
a(I47
I55
tp317
a(I55
I45
tp318
aa(lp319
(I31
I28
tp320
a(I28
I27
tp321
a(I27
I41
tp322
a(I41
I50
tp323
a(I50
I51
tp324
a(I51
I43
tp325
a(I43
I31
tp326
aa(lp327
(I38
I37
tp328
a(I37
I42
tp329
a(I42
I71
tp330
a(I71
I35
tp331
a(I35
I31
tp332
a(I31
I43
tp333
a(I43
I45
tp334
a(I45
I38
tp335
aa(lp336
(I71
I42
tp337
a(I42
I44
tp338
a(I44
I56
tp339
a(I56
I63
tp340
a(I63
I58
tp341
a(I58
I66
tp342
a(I66
I69
tp343
a(I69
I71
tp344
aa(lp345
(I47
I54
tp346
a(I54
I62
tp347
a(I62
I64
tp348
a(I64
I61
tp349
a(I61
I57
tp350
a(I57
I75
tp351
a(I75
I79
tp352
a(I79
I59
tp353
a(I59
I48
tp354
a(I48
I47
tp355
aa(lp356
(I94
I95
tp357
a(I95
I14
tp358
a(I14
I12
tp359
a(I12
I24
tp360
a(I24
I98
tp361
a(I98
I100
tp362
a(I100
I56
tp363
a(I56
I44
tp364
a(I44
I93
tp365
a(I93
I94
tp366
aa.