(lp0
(lp1
(I144
I145
tp2
a(I145
I143
tp3
a(I143
I144
tp4
aa(lp5
(I336
I337
tp6
a(I337
I356
tp7
a(I356
I336
tp8
aa(lp9
(I43
I44
tp10
a(I44
I47
tp11
a(I47
I43
tp12
aa(lp13
(I369
I350
tp14
a(I350
I353
tp15
a(I353
I369
tp16
aa(lp17
(I305
I225
tp18
a(I225
I228
tp19
a(I228
I305
tp20
aa(lp21
(I309
I306
tp22
a(I306
I307
tp23
a(I307
I309
tp24
aa(lp25
(I173
I221
tp26
a(I221
I172
tp27
a(I172
I173
tp28
aa(lp29
(I100
I94
tp30
a(I94
I95
tp31
a(I95
I100
tp32
aa(lp33
(I302
I293
tp34
a(I293
I294
tp35
a(I294
I302
tp36
aa(lp37
(I194
I219
tp38
a(I219
I193
tp39
a(I193
I194
tp40
aa(lp41
(I57
I90
tp42
a(I90
I46
tp43
a(I46
I57
tp44
aa(lp45
(I217
I215
tp46
a(I215
I216
tp47
a(I216
I217
tp48
aa(lp49
(I59
I50
tp50
a(I50
I51
tp51
a(I51
I59
tp52
aa(lp53
(I105
I118
tp54
a(I118
I102
tp55
a(I102
I105
tp56
aa(lp57
(I238
I239
tp58
a(I239
I254
tp59
a(I254
I238
tp60
aa(lp61
(I154
I17
tp62
a(I17
I21
tp63
a(I21
I154
tp64
aa(lp65
(I130
I133
tp66
a(I133
I129
tp67
a(I129
I130
tp68
aa(lp69
(I92
I87
tp70
a(I87
I88
tp71
a(I88
I92
tp72
aa(lp73
(I42
I12
tp74
a(I12
I14
tp75
a(I14
I42
tp76
aa(lp77
(I284
I273
tp78
a(I273
I275
tp79
a(I275
I284
tp80
aa(lp81
(I266
I270
tp82
a(I270
I265
tp83
a(I265
I266
tp84
aa(lp85
(I287
I296
tp86
a(I296
I286
tp87
a(I286
I287
tp88
aa(lp89
(I56
I52
tp90
a(I52
I53
tp91
a(I53
I56
tp92
aa(lp93
(I321
I322
tp94
a(I322
I320
tp95
a(I320
I321
tp96
aa(lp97
(I264
I269
tp98
a(I269
I263
tp99
a(I263
I264
tp100
aa(lp101
(I310
I276
tp102
a(I276
I278
tp103
a(I278
I310
tp104
aa(lp105
(I252
I253
tp106
a(I253
I261
tp107
a(I261
I252
tp108
aa(lp109
(I64
I93
tp110
a(I93
I63
tp111
a(I63
I64
tp112
aa(lp113
(I326
I344
tp114
a(I344
I312
tp115
a(I312
I326
tp116
aa(lp117
(I125
I127
tp118
a(I127
I134
tp119
a(I134
I125
tp120
aa(lp121
(I132
I115
tp122
a(I115
I117
tp123
a(I117
I132
tp124
aa(lp125
(I120
I136
tp126
a(I136
I119
tp127
a(I119
I120
tp128
aa(lp129
(I202
I199
tp130
a(I199
I200
tp131
a(I200
I202
tp132
aa(lp133
(I180
I202
tp134
a(I202
I200
tp135
a(I200
I177
tp136
a(I177
I180
tp137
aa(lp138
(I332
I333
tp139
a(I333
I359
tp140
a(I359
I358
tp141
a(I358
I332
tp142
aa(lp143
(I34
I27
tp144
a(I27
I28
tp145
a(I28
I40
tp146
a(I40
I34
tp147
aa(lp148
(I49
I58
tp149
a(I58
I55
tp150
a(I55
I48
tp151
a(I48
I49
tp152
aa(lp153
(I136
I108
tp154
a(I108
I106
tp155
a(I106
I119
tp156
a(I119
I136
tp157
aa(lp158
(I188
I217
tp159
a(I217
I216
tp160
a(I216
I186
tp161
a(I186
I188
tp162
aa(lp163
(I175
I181
tp164
a(I181
I203
tp165
a(I203
I195
tp166
a(I195
I175
tp167
aa(lp168
(I338
I99
tp169
a(I99
I147
tp170
a(I147
I339
tp171
a(I339
I338
tp172
aa(lp173
(I344
I326
tp174
a(I326
I325
tp175
a(I325
I343
tp176
a(I343
I344
tp177
aa(lp178
(I134
I127
tp179
a(I127
I126
tp180
a(I126
I131
tp181
a(I131
I134
tp182
aa(lp183
(I381
I86
tp184
a(I86
I91
tp185
a(I91
I380
tp186
a(I380
I381
tp187
aa(lp188
(I389
I97
tp189
a(I97
I96
tp190
a(I96
I388
tp191
a(I388
I389
tp192
aa(lp193
(I2
I379
tp194
a(I379
I35
tp195
a(I35
I24
tp196
a(I24
I2
tp197
aa(lp198
(I33
I34
tp199
a(I34
I40
tp200
a(I40
I38
tp201
a(I38
I33
tp202
aa(lp203
(I181
I182
tp204
a(I182
I204
tp205
a(I204
I203
tp206
a(I203
I181
tp207
aa(lp208
(I374
I373
tp209
a(I373
I386
tp210
a(I386
I385
tp211
a(I385
I374
tp212
aa(lp213
(I354
I331
tp214
a(I331
I332
tp215
a(I332
I358
tp216
a(I358
I354
tp217
aa(lp218
(I369
I353
tp219
a(I353
I352
tp220
a(I352
I367
tp221
a(I367
I369
tp222
aa(lp223
(I121
I110
tp224
a(I110
I111
tp225
a(I111
I122
tp226
a(I122
I121
tp227
aa(lp228
(I249
I252
tp229
a(I252
I261
tp230
a(I261
I247
tp231
a(I247
I249
tp232
aa(lp233
(I289
I310
tp234
a(I310
I278
tp235
a(I278
I277
tp236
a(I277
I289
tp237
aa(lp238
(I279
I319
tp239
a(I319
I324
tp240
a(I324
I223
tp241
a(I223
I279
tp242
aa(lp243
(I91
I89
tp244
a(I89
I378
tp245
a(I378
I380
tp246
a(I380
I91
tp247
aa(lp248
(I250
I251
tp249
a(I251
I255
tp250
a(I255
I259
tp251
a(I259
I250
tp252
aa(lp253
(I76
I77
tp254
a(I77
I316
tp255
a(I316
I314
tp256
a(I314
I76
tp257
aa(lp258
(I212
I179
tp259
a(I179
I135
tp260
a(I135
I146
tp261
a(I146
I212
tp262
aa(lp263
(I140
I142
tp264
a(I142
I139
tp265
a(I139
I138
tp266
a(I138
I140
tp267
aa(lp268
(I292
I291
tp269
a(I291
I280
tp270
a(I280
I281
tp271
a(I281
I292
tp272
aa(lp273
(I165
I270
tp274
a(I270
I266
tp275
a(I266
I163
tp276
a(I163
I165
tp277
aa(lp278
(I318
I156
tp279
a(I156
I155
tp280
a(I155
I167
tp281
a(I167
I318
tp282
aa(lp283
(I167
I169
tp284
a(I169
I317
tp285
a(I317
I318
tp286
a(I318
I167
tp287
aa(lp288
(I5
I110
tp289
a(I110
I121
tp290
a(I121
I6
tp291
a(I6
I5
tp292
aa(lp293
(I184
I185
tp294
a(I185
I213
tp295
a(I213
I211
tp296
a(I211
I184
tp297
aa(lp298
(I210
I208
tp299
a(I208
I205
tp300
a(I205
I206
tp301
a(I206
I210
tp302
aa(lp303
(I69
I84
tp304
a(I84
I83
tp305
a(I83
I67
tp306
a(I67
I69
tp307
aa(lp308
(I9
I8
tp309
a(I8
I360
tp310
a(I360
I361
tp311
a(I361
I9
tp312
aa(lp313
(I233
I234
tp314
a(I234
I303
tp315
a(I303
I283
tp316
a(I283
I233
tp317
aa(lp318
(I39
I37
tp319
a(I37
I33
tp320
a(I33
I38
tp321
a(I38
I39
tp322
aa(lp323
(I232
I272
tp324
a(I272
I271
tp325
a(I271
I231
tp326
a(I231
I232
tp327
aa(lp328
(I50
I59
tp329
a(I59
I58
tp330
a(I58
I49
tp331
a(I49
I50
tp332
aa(lp333
(I297
I282
tp334
a(I282
I283
tp335
a(I283
I303
tp336
a(I303
I297
tp337
aa(lp338
(I83
I81
tp339
a(I81
I66
tp340
a(I66
I67
tp341
a(I67
I83
tp342
aa(lp343
(I137
I141
tp344
a(I141
I140
tp345
a(I140
I138
tp346
a(I138
I137
tp347
aa(lp348
(I254
I239
tp349
a(I239
I160
tp350
a(I160
I162
tp351
a(I162
I254
tp352
aa(lp353
(I264
I263
tp354
a(I263
I262
tp355
a(I262
I256
tp356
a(I256
I258
tp357
a(I258
I264
tp358
aa(lp359
(I337
I331
tp360
a(I331
I354
tp361
a(I354
I355
tp362
a(I355
I356
tp363
a(I356
I337
tp364
aa(lp365
(I321
I290
tp366
a(I290
I301
tp367
a(I301
I340
tp368
a(I340
I322
tp369
a(I322
I321
tp370
aa(lp371
(I347
I345
tp372
a(I345
I323
tp373
a(I323
I327
tp374
a(I327
I328
tp375
a(I328
I347
tp376
aa(lp377
(I141
I145
tp378
a(I145
I144
tp379
a(I144
I142
tp380
a(I142
I140
tp381
a(I140
I141
tp382
aa(lp383
(I158
I172
tp384
a(I172
I221
tp385
a(I221
I220
tp386
a(I220
I159
tp387
a(I159
I158
tp388
aa(lp389
(I327
I224
tp390
a(I224
I235
tp391
a(I235
I329
tp392
a(I329
I328
tp393
a(I328
I327
tp394
aa(lp395
(I304
I309
tp396
a(I309
I307
tp397
a(I307
I298
tp398
a(I298
I299
tp399
a(I299
I304
tp400
aa(lp401
(I371
I54
tp402
a(I54
I52
tp403
a(I52
I56
tp404
a(I56
I370
tp405
a(I370
I371
tp406
aa(lp407
(I84
I69
tp408
a(I69
I60
tp409
a(I60
I61
tp410
a(I61
I85
tp411
a(I85
I84
tp412
aa(lp413
(I357
I68
tp414
a(I68
I101
tp415
a(I101
I113
tp416
a(I113
I368
tp417
a(I368
I357
tp418
aa(lp419
(I198
I199
tp420
a(I199
I202
tp421
a(I202
I180
tp422
a(I180
I178
tp423
a(I178
I198
tp424
aa(lp425
(I197
I218
tp426
a(I218
I219
tp427
a(I219
I194
tp428
a(I194
I192
tp429
a(I192
I197
tp430
aa(lp431
(I217
I188
tp432
a(I188
I187
tp433
a(I187
I214
tp434
a(I214
I215
tp435
a(I215
I217
tp436
aa(lp437
(I156
I80
tp438
a(I80
I73
tp439
a(I73
I148
tp440
a(I148
I155
tp441
a(I155
I156
tp442
aa(lp443
(I70
I82
tp444
a(I82
I377
tp445
a(I377
I382
tp446
a(I382
I71
tp447
a(I71
I70
tp448
aa(lp449
(I346
I335
tp450
a(I335
I379
tp451
a(I379
I2
tp452
a(I2
I13
tp453
a(I13
I346
tp454
aa(lp455
(I88
I62
tp456
a(I62
I63
tp457
a(I63
I93
tp458
a(I93
I92
tp459
a(I92
I88
tp460
aa(lp461
(I211
I210
tp462
a(I210
I206
tp463
a(I206
I183
tp464
a(I183
I184
tp465
a(I184
I211
tp466
aa(lp467
(I242
I249
tp468
a(I249
I247
tp469
a(I247
I248
tp470
a(I248
I243
tp471
a(I243
I242
tp472
aa(lp473
(I319
I279
tp474
a(I279
I290
tp475
a(I290
I321
tp476
a(I321
I320
tp477
a(I320
I319
tp478
aa(lp479
(I314
I316
tp480
a(I316
I315
tp481
a(I315
I311
tp482
a(I311
I313
tp483
a(I313
I314
tp484
aa(lp485
(I41
I45
tp486
a(I45
I36
tp487
a(I36
I37
tp488
a(I37
I39
tp489
a(I39
I41
tp490
aa(lp491
(I323
I345
tp492
a(I345
I342
tp493
a(I342
I343
tp494
a(I343
I325
tp495
a(I325
I323
tp496
aa(lp497
(I152
I154
tp498
a(I154
I21
tp499
a(I21
I20
tp500
a(I20
I209
tp501
a(I209
I152
tp502
aa(lp503
(I383
I384
tp504
a(I384
I387
tp505
a(I387
I100
tp506
a(I100
I95
tp507
a(I95
I383
tp508
aa(lp509
(I74
I171
tp510
a(I171
I170
tp511
a(I170
I18
tp512
a(I18
I26
tp513
a(I26
I74
tp514
aa(lp515
(I218
I23
tp516
a(I23
I25
tp517
a(I25
I193
tp518
a(I193
I219
tp519
a(I219
I218
tp520
aa(lp521
(I1
I112
tp522
a(I112
I223
tp523
a(I223
I324
tp524
a(I324
I0
tp525
a(I0
I1
tp526
aa(lp527
(I259
I255
tp528
a(I255
I256
tp529
a(I256
I262
tp530
a(I262
I260
tp531
a(I260
I259
tp532
aa(lp533
(I114
I115
tp534
a(I115
I132
tp535
a(I132
I128
tp536
a(I128
I123
tp537
a(I123
I114
tp538
aa(lp539
(I241
I240
tp540
a(I240
I245
tp541
a(I245
I311
tp542
a(I311
I315
tp543
a(I315
I241
tp544
aa(lp545
(I23
I218
tp546
a(I218
I197
tp547
a(I197
I196
tp548
a(I196
I22
tp549
a(I22
I23
tp550
aa(lp551
(I318
I317
tp552
a(I317
I78
tp553
a(I78
I80
tp554
a(I80
I156
tp555
a(I156
I318
tp556
aa(lp557
(I295
I293
tp558
a(I293
I302
tp559
a(I302
I300
tp560
a(I300
I308
tp561
a(I308
I295
tp562
aa(lp563
(I189
I191
tp564
a(I191
I198
tp565
a(I198
I178
tp566
a(I178
I176
tp567
a(I176
I189
tp568
aa(lp569
(I57
I46
tp570
a(I46
I13
tp571
a(I13
I2
tp572
a(I2
I24
tp573
a(I24
I57
tp574
aa(lp575
(I387
I388
tp576
a(I388
I96
tp577
a(I96
I94
tp578
a(I94
I100
tp579
a(I100
I387
tp580
aa(lp581
(I65
I66
tp582
a(I66
I81
tp583
a(I81
I82
tp584
a(I82
I70
tp585
a(I70
I65
tp586
aa(lp587
(I76
I314
tp588
a(I314
I313
tp589
a(I313
I230
tp590
a(I230
I75
tp591
a(I75
I76
tp592
aa(lp593
(I179
I212
tp594
a(I212
I246
tp595
a(I246
I235
tp596
a(I235
I224
tp597
a(I224
I201
tp598
a(I201
I179
tp599
aa(lp600
(I116
I118
tp601
a(I118
I105
tp602
a(I105
I104
tp603
a(I104
I129
tp604
a(I129
I133
tp605
a(I133
I116
tp606
aa(lp607
(I243
I244
tp608
a(I244
I245
tp609
a(I245
I240
tp610
a(I240
I236
tp611
a(I236
I242
tp612
a(I242
I243
tp613
aa(lp614
(I371
I372
tp615
a(I372
I375
tp616
a(I375
I31
tp617
a(I31
I30
tp618
a(I30
I54
tp619
a(I54
I371
tp620
aa(lp621
(I36
I29
tp622
a(I29
I27
tp623
a(I27
I34
tp624
a(I34
I33
tp625
a(I33
I37
tp626
a(I37
I36
tp627
aa(lp628
(I207
I205
tp629
a(I205
I208
tp630
a(I208
I153
tp631
a(I153
I152
tp632
a(I152
I209
tp633
a(I209
I207
tp634
aa(lp635
(I124
I168
tp636
a(I168
I112
tp637
a(I112
I1
tp638
a(I1
I368
tp639
a(I368
I113
tp640
a(I113
I124
tp641
aa(lp642
(I58
I59
tp643
a(I59
I51
tp644
a(I51
I364
tp645
a(I364
I366
tp646
a(I366
I55
tp647
a(I55
I58
tp648
aa(lp649
(I157
I146
tp650
a(I146
I135
tp651
a(I135
I124
tp652
a(I124
I113
tp653
a(I113
I101
tp654
a(I101
I157
tp655
aa(lp656
(I305
I228
tp657
a(I228
I227
tp658
a(I227
I306
tp659
a(I306
I309
tp660
a(I309
I304
tp661
a(I304
I305
tp662
aa(lp663
(I179
I201
tp664
a(I201
I190
tp665
a(I190
I168
tp666
a(I168
I124
tp667
a(I124
I135
tp668
a(I135
I179
tp669
aa(lp670
(I186
I216
tp671
a(I216
I215
tp672
a(I215
I214
tp673
a(I214
I213
tp674
a(I213
I185
tp675
a(I185
I186
tp676
aa(lp677
(I205
I207
tp678
a(I207
I204
tp679
a(I204
I182
tp680
a(I182
I183
tp681
a(I183
I206
tp682
a(I206
I205
tp683
aa(lp684
(I362
I363
tp685
a(I363
I47
tp686
a(I47
I44
tp687
a(I44
I42
tp688
a(I42
I14
tp689
a(I14
I362
tp690
aa(lp691
(I199
I198
tp692
a(I198
I191
tp693
a(I191
I174
tp694
a(I174
I177
tp695
a(I177
I200
tp696
a(I200
I199
tp697
aa(lp698
(I291
I285
tp699
a(I285
I284
tp700
a(I284
I275
tp701
a(I275
I274
tp702
a(I274
I280
tp703
a(I280
I291
tp704
aa(lp705
(I132
I117
tp706
a(I117
I116
tp707
a(I116
I133
tp708
a(I133
I130
tp709
a(I130
I128
tp710
a(I128
I132
tp711
aa(lp712
(I335
I346
tp713
a(I346
I357
tp714
a(I357
I368
tp715
a(I368
I1
tp716
a(I1
I0
tp717
a(I0
I335
tp718
aa(lp719
(I38
I40
tp720
a(I40
I28
tp721
a(I28
I10
tp722
a(I10
I11
tp723
a(I11
I41
tp724
a(I41
I39
tp725
a(I39
I38
tp726
aa(lp727
(I342
I330
tp728
a(I330
I257
tp729
a(I257
I268
tp730
a(I268
I312
tp731
a(I312
I344
tp732
a(I344
I343
tp733
a(I343
I342
tp734
aa(lp735
(I12
I42
tp736
a(I42
I44
tp737
a(I44
I43
tp738
a(I43
I45
tp739
a(I45
I41
tp740
a(I41
I11
tp741
a(I11
I12
tp742
aa(lp743
(I271
I267
tp744
a(I267
I265
tp745
a(I265
I270
tp746
a(I270
I165
tp747
a(I165
I164
tp748
a(I164
I231
tp749
a(I231
I271
tp750
aa(lp751
(I229
I288
tp752
a(I288
I286
tp753
a(I286
I296
tp754
a(I296
I295
tp755
a(I295
I308
tp756
a(I308
I226
tp757
a(I226
I229
tp758
aa(lp759
(I355
I354
tp760
a(I354
I358
tp761
a(I358
I359
tp762
a(I359
I360
tp763
a(I360
I8
tp764
a(I8
I7
tp765
a(I7
I355
tp766
aa(lp767
(I114
I123
tp768
a(I123
I126
tp769
a(I126
I127
tp770
a(I127
I125
tp771
a(I125
I122
tp772
a(I122
I111
tp773
a(I111
I114
tp774
aa(lp775
(I170
I171
tp776
a(I171
I173
tp777
a(I173
I172
tp778
a(I172
I158
tp779
a(I158
I149
tp780
a(I149
I150
tp781
a(I150
I170
tp782
aa(lp783
(I261
I253
tp784
a(I253
I250
tp785
a(I250
I259
tp786
a(I259
I260
tp787
a(I260
I248
tp788
a(I248
I247
tp789
a(I247
I261
tp790
aa(lp791
(I92
I93
tp792
a(I93
I64
tp793
a(I64
I376
tp794
a(I376
I378
tp795
a(I378
I89
tp796
a(I89
I87
tp797
a(I87
I92
tp798
aa(lp799
(I346
I13
tp800
a(I13
I46
tp801
a(I46
I90
tp802
a(I90
I79
tp803
a(I79
I68
tp804
a(I68
I357
tp805
a(I357
I346
tp806
aa(lp807
(I307
I306
tp808
a(I306
I227
tp809
a(I227
I226
tp810
a(I226
I308
tp811
a(I308
I300
tp812
a(I300
I298
tp813
a(I298
I307
tp814
aa(lp815
(I197
I192
tp816
a(I192
I189
tp817
a(I189
I176
tp818
a(I176
I175
tp819
a(I175
I195
tp820
a(I195
I196
tp821
a(I196
I197
tp822
aa(lp823
(I349
I348
tp824
a(I348
I334
tp825
a(I334
I330
tp826
a(I330
I342
tp827
a(I342
I345
tp828
a(I345
I347
tp829
a(I347
I349
tp830
aa(lp831
(I53
I48
tp832
a(I48
I55
tp833
a(I55
I366
tp834
a(I366
I365
tp835
a(I365
I370
tp836
a(I370
I56
tp837
a(I56
I53
tp838
aa(lp839
(I25
I19
tp840
a(I19
I174
tp841
a(I174
I191
tp842
a(I191
I189
tp843
a(I189
I192
tp844
a(I192
I194
tp845
a(I194
I193
tp846
a(I193
I25
tp847
aa(lp848
(I249
I242
tp849
a(I242
I236
tp850
a(I236
I237
tp851
a(I237
I251
tp852
a(I251
I250
tp853
a(I250
I253
tp854
a(I253
I252
tp855
a(I252
I249
tp856
aa(lp857
(I232
I231
tp858
a(I231
I164
tp859
a(I164
I159
tp860
a(I159
I220
tp861
a(I220
I222
tp862
a(I222
I234
tp863
a(I234
I233
tp864
a(I233
I232
tp865
aa(lp866
(I222
I225
tp867
a(I225
I305
tp868
a(I305
I304
tp869
a(I304
I299
tp870
a(I299
I297
tp871
a(I297
I303
tp872
a(I303
I234
tp873
a(I234
I222
tp874
aa(lp875
(I28
I27
tp876
a(I27
I29
tp877
a(I29
I30
tp878
a(I30
I31
tp879
a(I31
I32
tp880
a(I32
I15
tp881
a(I15
I10
tp882
a(I10
I28
tp883
aa(lp884
(I166
I241
tp885
a(I241
I315
tp886
a(I315
I316
tp887
a(I316
I77
tp888
a(I77
I78
tp889
a(I78
I317
tp890
a(I317
I169
tp891
a(I169
I166
tp892
aa(lp893
(I241
I166
tp894
a(I166
I160
tp895
a(I160
I239
tp896
a(I239
I238
tp897
a(I238
I237
tp898
a(I237
I236
tp899
a(I236
I240
tp900
a(I240
I241
tp901
aa(lp902
(I286
I288
tp903
a(I288
I289
tp904
a(I289
I277
tp905
a(I277
I273
tp906
a(I273
I284
tp907
a(I284
I285
tp908
a(I285
I287
tp909
a(I287
I286
tp910
aa(lp911
(I195
I203
tp912
a(I203
I204
tp913
a(I204
I207
tp914
a(I207
I209
tp915
a(I209
I20
tp916
a(I20
I22
tp917
a(I22
I196
tp918
a(I196
I195
tp919
aa(lp920
(I147
I99
tp921
a(I99
I98
tp922
a(I98
I109
tp923
a(I109
I157
tp924
a(I157
I101
tp925
a(I101
I68
tp926
a(I68
I79
tp927
a(I79
I147
tp928
aa(lp929
(I274
I272
tp930
a(I272
I232
tp931
a(I232
I233
tp932
a(I233
I283
tp933
a(I283
I282
tp934
a(I282
I281
tp935
a(I281
I280
tp936
a(I280
I274
tp937
aa(lp938
(I60
I69
tp939
a(I69
I67
tp940
a(I67
I66
tp941
a(I66
I65
tp942
a(I65
I16
tp943
a(I16
I15
tp944
a(I15
I32
tp945
a(I32
I60
tp946
aa(lp947
(I87
I89
tp948
a(I89
I91
tp949
a(I91
I86
tp950
a(I86
I85
tp951
a(I85
I61
tp952
a(I61
I62
tp953
a(I62
I88
tp954
a(I88
I87
tp955
aa(lp956
(I352
I353
tp957
a(I353
I350
tp958
a(I350
I349
tp959
a(I349
I347
tp960
a(I347
I328
tp961
a(I328
I329
tp962
a(I329
I351
tp963
a(I351
I352
tp964
aa(lp965
(I103
I3
tp966
a(I3
I6
tp967
a(I6
I121
tp968
a(I121
I122
tp969
a(I122
I125
tp970
a(I125
I134
tp971
a(I134
I131
tp972
a(I131
I103
tp973
aa(lp974
(I82
I81
tp975
a(I81
I83
tp976
a(I83
I84
tp977
a(I84
I85
tp978
a(I85
I86
tp979
a(I86
I381
tp980
a(I381
I377
tp981
a(I377
I82
tp982
aa(lp983
(I147
I79
tp984
a(I79
I90
tp985
a(I90
I57
tp986
a(I57
I24
tp987
a(I24
I35
tp988
a(I35
I341
tp989
a(I341
I339
tp990
a(I339
I147
tp991
aa(lp992
(I104
I103
tp993
a(I103
I131
tp994
a(I131
I126
tp995
a(I126
I123
tp996
a(I123
I128
tp997
a(I128
I130
tp998
a(I130
I129
tp999
a(I129
I104
tp1000
aa(lp1001
(I214
I187
tp1002
a(I187
I151
tp1003
a(I151
I153
tp1004
a(I153
I208
tp1005
a(I208
I210
tp1006
a(I210
I211
tp1007
a(I211
I213
tp1008
a(I213
I214
tp1009
aa(lp1010
(I294
I293
tp1011
a(I293
I295
tp1012
a(I295
I296
tp1013
a(I296
I287
tp1014
a(I287
I285
tp1015
a(I285
I291
tp1016
a(I291
I292
tp1017
a(I292
I294
tp1018
aa(lp1019
(I264
I258
tp1020
a(I258
I161
tp1021
a(I161
I163
tp1022
a(I163
I266
tp1023
a(I266
I265
tp1024
a(I265
I267
tp1025
a(I267
I269
tp1026
a(I269
I264
tp1027
aa(lp1028
(I370
I365
tp1029
a(I365
I348
tp1030
a(I348
I349
tp1031
a(I349
I350
tp1032
a(I350
I369
tp1033
a(I369
I367
tp1034
a(I367
I372
tp1035
a(I372
I371
tp1036
a(I371
I370
tp1037
aa(lp1038
(I299
I298
tp1039
a(I298
I300
tp1040
a(I300
I302
tp1041
a(I302
I294
tp1042
a(I294
I292
tp1043
a(I292
I281
tp1044
a(I281
I282
tp1045
a(I282
I297
tp1046
a(I297
I299
tp1047
aa(lp1048
(I139
I246
tp1049
a(I246
I212
tp1050
a(I212
I146
tp1051
a(I146
I157
tp1052
a(I157
I109
tp1053
a(I109
I107
tp1054
a(I107
I137
tp1055
a(I137
I138
tp1056
a(I138
I139
tp1057
aa(lp1058
(I325
I326
tp1059
a(I326
I312
tp1060
a(I312
I268
tp1061
a(I268
I190
tp1062
a(I190
I201
tp1063
a(I201
I224
tp1064
a(I224
I327
tp1065
a(I327
I323
tp1066
a(I323
I325
tp1067
aa(lp1068
(I268
I257
tp1069
a(I257
I301
tp1070
a(I301
I290
tp1071
a(I290
I279
tp1072
a(I279
I223
tp1073
a(I223
I112
tp1074
a(I112
I168
tp1075
a(I168
I190
tp1076
a(I190
I268
tp1077
aa(lp1078
(I32
I31
tp1079
a(I31
I375
tp1080
a(I375
I376
tp1081
a(I376
I64
tp1082
a(I64
I63
tp1083
a(I63
I62
tp1084
a(I62
I61
tp1085
a(I61
I60
tp1086
a(I60
I32
tp1087
aa(lp1088
(I255
I251
tp1089
a(I251
I237
tp1090
a(I237
I238
tp1091
a(I238
I254
tp1092
a(I254
I162
tp1093
a(I162
I161
tp1094
a(I161
I258
tp1095
a(I258
I256
tp1096
a(I256
I255
tp1097
aa(lp1098
(I387
I384
tp1099
a(I384
I374
tp1100
a(I374
I385
tp1101
a(I385
I4
tp1102
a(I4
I5
tp1103
a(I5
I6
tp1104
a(I6
I3
tp1105
a(I3
I389
tp1106
a(I389
I388
tp1107
a(I388
I387
tp1108
aa(lp1109
(I386
I373
tp1110
a(I373
I351
tp1111
a(I351
I329
tp1112
a(I329
I235
tp1113
a(I235
I246
tp1114
a(I246
I139
tp1115
a(I139
I142
tp1116
a(I142
I144
tp1117
a(I144
I143
tp1118
a(I143
I386
tp1119
aa(lp1120
(I245
I244
tp1121
a(I244
I276
tp1122
a(I276
I310
tp1123
a(I310
I289
tp1124
a(I289
I288
tp1125
a(I288
I229
tp1126
a(I229
I230
tp1127
a(I230
I313
tp1128
a(I313
I311
tp1129
a(I311
I245
tp1130
aa(lp1131
(I340
I341
tp1132
a(I341
I35
tp1133
a(I35
I379
tp1134
a(I379
I335
tp1135
a(I335
I0
tp1136
a(I0
I324
tp1137
a(I324
I319
tp1138
a(I319
I320
tp1139
a(I320
I322
tp1140
a(I322
I340
tp1141
aa(lp1142
(I359
I333
tp1143
a(I333
I334
tp1144
a(I334
I348
tp1145
a(I348
I365
tp1146
a(I365
I366
tp1147
a(I366
I364
tp1148
a(I364
I363
tp1149
a(I363
I362
tp1150
a(I362
I361
tp1151
a(I361
I360
tp1152
a(I360
I359
tp1153
aa(lp1154
(I107
I108
tp1155
a(I108
I136
tp1156
a(I136
I120
tp1157
a(I120
I4
tp1158
a(I4
I385
tp1159
a(I385
I386
tp1160
a(I386
I143
tp1161
a(I143
I145
tp1162
a(I145
I141
tp1163
a(I141
I137
tp1164
a(I137
I107
tp1165
aa(lp1166
(I108
I107
tp1167
a(I107
I109
tp1168
a(I109
I98
tp1169
a(I98
I97
tp1170
a(I97
I389
tp1171
a(I389
I3
tp1172
a(I3
I103
tp1173
a(I103
I104
tp1174
a(I104
I105
tp1175
a(I105
I102
tp1176
a(I102
I106
tp1177
a(I106
I108
tp1178
aa(lp1179
(I173
I171
tp1180
a(I171
I74
tp1181
a(I74
I75
tp1182
a(I75
I230
tp1183
a(I230
I229
tp1184
a(I229
I226
tp1185
a(I226
I227
tp1186
a(I227
I228
tp1187
a(I228
I225
tp1188
a(I225
I222
tp1189
a(I222
I220
tp1190
a(I220
I221
tp1191
a(I221
I173
tp1192
aa(lp1193
(I73
I72
tp1194
a(I72
I7
tp1195
a(I7
I8
tp1196
a(I8
I9
tp1197
a(I9
I17
tp1198
a(I17
I154
tp1199
a(I154
I152
tp1200
a(I152
I153
tp1201
a(I153
I151
tp1202
a(I151
I150
tp1203
a(I150
I149
tp1204
a(I149
I148
tp1205
a(I148
I73
tp1206
aa(lp1207
(I77
I76
tp1208
a(I76
I75
tp1209
a(I75
I74
tp1210
a(I74
I26
tp1211
a(I26
I16
tp1212
a(I16
I65
tp1213
a(I65
I70
tp1214
a(I70
I71
tp1215
a(I71
I72
tp1216
a(I72
I73
tp1217
a(I73
I80
tp1218
a(I80
I78
tp1219
a(I78
I77
tp1220
aa(lp1221
(I111
I110
tp1222
a(I110
I5
tp1223
a(I5
I4
tp1224
a(I4
I120
tp1225
a(I120
I119
tp1226
a(I119
I106
tp1227
a(I106
I102
tp1228
a(I102
I118
tp1229
a(I118
I116
tp1230
a(I116
I117
tp1231
a(I117
I115
tp1232
a(I115
I114
tp1233
a(I114
I111
tp1234
aa(lp1235
(I333
I332
tp1236
a(I332
I331
tp1237
a(I331
I337
tp1238
a(I337
I336
tp1239
a(I336
I338
tp1240
a(I338
I339
tp1241
a(I339
I341
tp1242
a(I341
I340
tp1243
a(I340
I301
tp1244
a(I301
I257
tp1245
a(I257
I330
tp1246
a(I330
I334
tp1247
a(I334
I333
tp1248
aa(lp1249
(I162
I160
tp1250
a(I160
I166
tp1251
a(I166
I169
tp1252
a(I169
I167
tp1253
a(I167
I155
tp1254
a(I155
I148
tp1255
a(I148
I149
tp1256
a(I149
I158
tp1257
a(I158
I159
tp1258
a(I159
I164
tp1259
a(I164
I165
tp1260
a(I165
I163
tp1261
a(I163
I161
tp1262
a(I161
I162
tp1263
aa(lp1264
(I382
I377
tp1265
a(I377
I381
tp1266
a(I381
I380
tp1267
a(I380
I378
tp1268
a(I378
I376
tp1269
a(I376
I375
tp1270
a(I375
I372
tp1271
a(I372
I367
tp1272
a(I367
I352
tp1273
a(I352
I351
tp1274
a(I351
I373
tp1275
a(I373
I374
tp1276
a(I374
I384
tp1277
a(I384
I383
tp1278
a(I383
I382
tp1279
aa(lp1280
(I99
I338
tp1281
a(I338
I336
tp1282
a(I336
I356
tp1283
a(I356
I355
tp1284
a(I355
I7
tp1285
a(I7
I72
tp1286
a(I72
I71
tp1287
a(I71
I382
tp1288
a(I382
I383
tp1289
a(I383
I95
tp1290
a(I95
I94
tp1291
a(I94
I96
tp1292
a(I96
I97
tp1293
a(I97
I98
tp1294
a(I98
I99
tp1295
aa(lp1296
(I364
I51
tp1297
a(I51
I50
tp1298
a(I50
I49
tp1299
a(I49
I48
tp1300
a(I48
I53
tp1301
a(I53
I52
tp1302
a(I52
I54
tp1303
a(I54
I30
tp1304
a(I30
I29
tp1305
a(I29
I36
tp1306
a(I36
I45
tp1307
a(I45
I43
tp1308
a(I43
I47
tp1309
a(I47
I363
tp1310
a(I363
I364
tp1311
aa(lp1312
(I274
I275
tp1313
a(I275
I273
tp1314
a(I273
I277
tp1315
a(I277
I278
tp1316
a(I278
I276
tp1317
a(I276
I244
tp1318
a(I244
I243
tp1319
a(I243
I248
tp1320
a(I248
I260
tp1321
a(I260
I262
tp1322
a(I262
I263
tp1323
a(I263
I269
tp1324
a(I269
I267
tp1325
a(I267
I271
tp1326
a(I271
I272
tp1327
a(I272
I274
tp1328
aa(lp1329
(I18
I19
tp1330
a(I19
I25
tp1331
a(I25
I23
tp1332
a(I23
I22
tp1333
a(I22
I20
tp1334
a(I20
I21
tp1335
a(I21
I17
tp1336
a(I17
I9
tp1337
a(I9
I361
tp1338
a(I361
I362
tp1339
a(I362
I14
tp1340
a(I14
I12
tp1341
a(I12
I11
tp1342
a(I11
I10
tp1343
a(I10
I15
tp1344
a(I15
I16
tp1345
a(I16
I26
tp1346
a(I26
I18
tp1347
aa(lp1348
(I19
I18
tp1349
a(I18
I170
tp1350
a(I170
I150
tp1351
a(I150
I151
tp1352
a(I151
I187
tp1353
a(I187
I188
tp1354
a(I188
I186
tp1355
a(I186
I185
tp1356
a(I185
I184
tp1357
a(I184
I183
tp1358
a(I183
I182
tp1359
a(I182
I181
tp1360
a(I181
I175
tp1361
a(I175
I176
tp1362
a(I176
I178
tp1363
a(I178
I180
tp1364
a(I180
I177
tp1365
a(I177
I174
tp1366
a(I174
I19
tp1367
aa.