(lp0
(lp1
(I1331
I1329
tp2
a(I1329
I1362
tp3
a(I1362
I1331
tp4
aa(lp5
(I118
I129
tp6
a(I129
I119
tp7
a(I119
I118
tp8
aa(lp9
(I450
I448
tp10
a(I448
I451
tp11
a(I451
I450
tp12
aa(lp13
(I70
I77
tp14
a(I77
I71
tp15
a(I71
I70
tp16
aa(lp17
(I1267
I1265
tp18
a(I1265
I1282
tp19
a(I1282
I1267
tp20
aa(lp21
(I408
I407
tp22
a(I407
I496
tp23
a(I496
I408
tp24
aa(lp25
(I271
I263
tp26
a(I263
I262
tp27
a(I262
I271
tp28
aa(lp29
(I1377
I1372
tp30
a(I1372
I1390
tp31
a(I1390
I1377
tp32
aa(lp33
(I559
I555
tp34
a(I555
I588
tp35
a(I588
I559
tp36
aa(lp37
(I993
I991
tp38
a(I991
I1007
tp39
a(I1007
I993
tp40
aa(lp41
(I1381
I1380
tp42
a(I1380
I1379
tp43
a(I1379
I1381
tp44
aa(lp45
(I1003
I1013
tp46
a(I1013
I1005
tp47
a(I1005
I1003
tp48
aa(lp49
(I1527
I1507
tp50
a(I1507
I1506
tp51
a(I1506
I1527
tp52
aa(lp53
(I897
I1208
tp54
a(I1208
I919
tp55
a(I919
I897
tp56
aa(lp57
(I1159
I1143
tp58
a(I1143
I1142
tp59
a(I1142
I1159
tp60
aa(lp61
(I440
I625
tp62
a(I625
I442
tp63
a(I442
I440
tp64
aa(lp65
(I1106
I1151
tp66
a(I1151
I1110
tp67
a(I1110
I1106
tp68
aa(lp69
(I622
I616
tp70
a(I616
I615
tp71
a(I615
I622
tp72
aa(lp73
(I113
I658
tp74
a(I658
I335
tp75
a(I335
I113
tp76
aa(lp77
(I829
I828
tp78
a(I828
I832
tp79
a(I832
I829
tp80
aa(lp81
(I685
I696
tp82
a(I696
I688
tp83
a(I688
I685
tp84
aa(lp85
(I1292
I1291
tp86
a(I1291
I1298
tp87
a(I1298
I1292
tp88
aa(lp89
(I172
I177
tp90
a(I177
I174
tp91
a(I174
I172
tp92
aa(lp93
(I1135
I1134
tp94
a(I1134
I1147
tp95
a(I1147
I1135
tp96
aa(lp97
(I938
I936
tp98
a(I936
I950
tp99
a(I950
I938
tp100
aa(lp101
(I746
I750
tp102
a(I750
I747
tp103
a(I747
I746
tp104
aa(lp105
(I1589
I16
tp106
a(I16
I1591
tp107
a(I1591
I1589
tp108
aa(lp109
(I1146
I1099
tp110
a(I1099
I1096
tp111
a(I1096
I1146
tp112
aa(lp113
(I956
I955
tp114
a(I955
I1129
tp115
a(I1129
I956
tp116
aa(lp117
(I62
I112
tp118
a(I112
I64
tp119
a(I64
I62
tp120
aa(lp121
(I124
I123
tp122
a(I123
I126
tp123
a(I126
I124
tp124
aa(lp125
(I970
I989
tp126
a(I989
I973
tp127
a(I973
I970
tp128
aa(lp129
(I1191
I1132
tp130
a(I1132
I1131
tp131
a(I1131
I1191
tp132
aa(lp133
(I148
I1261
tp134
a(I1261
I1260
tp135
a(I1260
I148
tp136
aa(lp137
(I661
I660
tp138
a(I660
I663
tp139
a(I663
I661
tp140
aa(lp141
(I1234
I1204
tp142
a(I1204
I1200
tp143
a(I1200
I1234
tp144
aa(lp145
(I503
I499
tp146
a(I499
I507
tp147
a(I507
I503
tp148
aa(lp149
(I1530
I1508
tp150
a(I1508
I1497
tp151
a(I1497
I1530
tp152
aa(lp153
(I521
I527
tp154
a(I527
I522
tp155
a(I522
I521
tp156
aa(lp157
(I1121
I1118
tp158
a(I1118
I1116
tp159
a(I1116
I1121
tp160
aa(lp161
(I1125
I1073
tp162
a(I1073
I1071
tp163
a(I1071
I1125
tp164
aa(lp165
(I1334
I13
tp166
a(I13
I1335
tp167
a(I1335
I1334
tp168
aa(lp169
(I1017
I1015
tp170
a(I1015
I1025
tp171
a(I1025
I1017
tp172
aa(lp173
(I47
I25
tp174
a(I25
I91
tp175
a(I91
I47
tp176
aa(lp177
(I1008
I864
tp178
a(I864
I842
tp179
a(I842
I1008
tp180
aa(lp181
(I878
I874
tp182
a(I874
I873
tp183
a(I873
I878
tp184
aa(lp185
(I1229
I1228
tp186
a(I1228
I1236
tp187
a(I1236
I1229
tp188
aa(lp189
(I295
I301
tp190
a(I301
I297
tp191
a(I297
I295
tp192
aa(lp193
(I1238
I1237
tp194
a(I1237
I1245
tp195
a(I1245
I1238
tp196
aa(lp197
(I1255
I137
tp198
a(I137
I1257
tp199
a(I1257
I1255
tp200
aa(lp201
(I305
I304
tp202
a(I304
I332
tp203
a(I332
I305
tp204
aa(lp205
(I586
I598
tp206
a(I598
I587
tp207
a(I587
I586
tp208
aa(lp209
(I330
I554
tp210
a(I554
I331
tp211
a(I331
I330
tp212
aa(lp213
(I1075
I997
tp214
a(I997
I975
tp215
a(I975
I1075
tp216
aa(lp217
(I173
I167
tp218
a(I167
I176
tp219
a(I176
I173
tp220
aa(lp221
(I1563
I1541
tp222
a(I1541
I336
tp223
a(I336
I1563
tp224
aa(lp225
(I404
I403
tp226
a(I403
I405
tp227
a(I405
I404
tp228
aa(lp229
(I1244
I54
tp230
a(I54
I1248
tp231
a(I1248
I1244
tp232
aa(lp233
(I992
I988
tp234
a(I988
I1000
tp235
a(I1000
I992
tp236
aa(lp237
(I1457
I1456
tp238
a(I1456
I1476
tp239
a(I1476
I1457
tp240
aa(lp241
(I231
I228
tp242
a(I228
I260
tp243
a(I260
I231
tp244
aa(lp245
(I821
I818
tp246
a(I818
I834
tp247
a(I834
I821
tp248
aa(lp249
(I1079
I1095
tp250
a(I1095
I1080
tp251
a(I1080
I1079
tp252
aa(lp253
(I1536
I1542
tp254
a(I1542
I1537
tp255
a(I1537
I1536
tp256
aa(lp257
(I209
I644
tp258
a(I644
I210
tp259
a(I210
I209
tp260
aa(lp261
(I639
I638
tp262
a(I638
I641
tp263
a(I641
I639
tp264
aa(lp265
(I890
I888
tp266
a(I888
I896
tp267
a(I896
I890
tp268
aa(lp269
(I1546
I1544
tp270
a(I1544
I1548
tp271
a(I1548
I1546
tp272
aa(lp273
(I277
I286
tp274
a(I286
I278
tp275
a(I278
I277
tp276
aa(lp277
(I132
I131
tp278
a(I131
I171
tp279
a(I171
I132
tp280
aa(lp281
(I673
I715
tp282
a(I715
I676
tp283
a(I676
I673
tp284
aa(lp285
(I1271
I1270
tp286
a(I1270
I1273
tp287
a(I1273
I1271
tp288
aa(lp289
(I56
I53
tp290
a(I53
I52
tp291
a(I52
I56
tp292
aa(lp293
(I767
I687
tp294
a(I687
I684
tp295
a(I684
I767
tp296
aa(lp297
(I376
I374
tp298
a(I374
I383
tp299
a(I383
I376
tp300
aa(lp301
(I682
I692
tp302
a(I692
I683
tp303
a(I683
I682
tp304
aa(lp305
(I500
I401
tp306
a(I401
I400
tp307
a(I400
I500
tp308
aa(lp309
(I1403
I1401
tp310
a(I1401
I1399
tp311
a(I1399
I1403
tp312
aa(lp313
(I1044
I1032
tp314
a(I1032
I1031
tp315
a(I1031
I1044
tp316
aa(lp317
(I302
I291
tp318
a(I291
I905
tp319
a(I905
I302
tp320
aa(lp321
(I912
I893
tp322
a(I893
I891
tp323
a(I891
I912
tp324
aa(lp325
(I798
I805
tp326
a(I805
I799
tp327
a(I799
I798
tp328
aa(lp329
(I732
I730
tp330
a(I730
I740
tp331
a(I740
I732
tp332
aa(lp333
(I711
I710
tp334
a(I710
I766
tp335
a(I766
I711
tp336
aa(lp337
(I1322
I1316
tp338
a(I1316
I1354
tp339
a(I1354
I1322
tp340
aa(lp341
(I700
I795
tp342
a(I795
I703
tp343
a(I703
I700
tp344
aa(lp345
(I353
I363
tp346
a(I363
I355
tp347
a(I355
I353
tp348
aa(lp349
(I1300
I1366
tp350
a(I1366
I1312
tp351
a(I1312
I1300
tp352
aa(lp353
(I1463
I1452
tp354
a(I1452
I225
tp355
a(I225
I1463
tp356
aa(lp357
(I1137
I1136
tp358
a(I1136
I1148
tp359
a(I1148
I1137
tp360
aa(lp361
(I1573
I1571
tp362
a(I1571
I1572
tp363
a(I1572
I1573
tp364
aa(lp365
(I266
I264
tp366
a(I264
I279
tp367
a(I279
I266
tp368
aa(lp369
(I784
I939
tp370
a(I939
I785
tp371
a(I785
I784
tp372
aa(lp373
(I611
I601
tp374
a(I601
I599
tp375
a(I599
I611
tp376
aa(lp377
(I1550
I1567
tp378
a(I1567
I1553
tp379
a(I1553
I1550
tp380
aa(lp381
(I1522
I1533
tp382
a(I1533
I1524
tp383
a(I1524
I1522
tp384
aa(lp385
(I972
I1001
tp386
a(I1001
I974
tp387
a(I974
I972
tp388
aa(lp389
(I596
I595
tp390
a(I595
I594
tp391
a(I594
I596
tp392
aa(lp393
(I344
I343
tp394
a(I343
I342
tp395
a(I342
I344
tp396
aa(lp397
(I607
I576
tp398
a(I576
I575
tp399
a(I575
I607
tp400
aa(lp401
(I37
I44
tp402
a(I44
I38
tp403
a(I38
I37
tp404
aa(lp405
(I300
I292
tp406
a(I292
I290
tp407
a(I290
I300
tp408
aa(lp409
(I534
I327
tp410
a(I327
I325
tp411
a(I325
I534
tp412
aa(lp413
(I394
I393
tp414
a(I393
I506
tp415
a(I506
I394
tp416
aa(lp417
(I1535
I1495
tp418
a(I1495
I1494
tp419
a(I1494
I1535
tp420
aa(lp421
(I686
I656
tp422
a(I656
I697
tp423
a(I697
I686
tp424
aa(lp425
(I722
I763
tp426
a(I763
I725
tp427
a(I725
I722
tp428
aa(lp429
(I650
I193
tp430
a(I193
I190
tp431
a(I190
I650
tp432
aa(lp433
(I1428
I1426
tp434
a(I1426
I1425
tp435
a(I1425
I1428
tp436
aa(lp437
(I285
I283
tp438
a(I283
I288
tp439
a(I288
I285
tp440
aa(lp441
(I436
I528
tp442
a(I528
I438
tp443
a(I438
I436
tp444
aa(lp445
(I251
I250
tp446
a(I250
I287
tp447
a(I287
I251
tp448
aa(lp449
(I748
I743
tp450
a(I743
I741
tp451
a(I741
I748
tp452
aa(lp453
(I924
I921
tp454
a(I921
I920
tp455
a(I920
I924
tp456
aa(lp457
(I552
I551
tp458
a(I551
I550
tp459
a(I550
I552
tp460
aa(lp461
(I1448
I1482
tp462
a(I1482
I1453
tp463
a(I1453
I1448
tp464
aa(lp465
(I1358
I1423
tp466
a(I1423
I1359
tp467
a(I1359
I1358
tp468
aa(lp469
(I352
I351
tp470
a(I351
I362
tp471
a(I362
I352
tp472
aa(lp473
(I1520
I1516
tp474
a(I1516
I1523
tp475
a(I1523
I1520
tp476
aa(lp477
(I903
I902
tp478
a(I902
I904
tp479
a(I904
I903
tp480
aa(lp481
(I637
I636
tp482
a(I636
I642
tp483
a(I642
I637
tp484
aa(lp485
(I1176
I1072
tp486
a(I1072
I1068
tp487
a(I1068
I1176
tp488
aa(lp489
(I79
I78
tp490
a(I78
I76
tp491
a(I76
I79
tp492
aa(lp493
(I1328
I1323
tp494
a(I1323
I1383
tp495
a(I1383
I1328
tp496
aa(lp497
(I613
I681
tp498
a(I681
I624
tp499
a(I624
I613
tp500
aa(lp501
(I1558
I1557
tp502
a(I1557
I1579
tp503
a(I1579
I1558
tp504
aa(lp505
(I457
I456
tp506
a(I456
I460
tp507
a(I460
I457
tp508
aa(lp509
(I6
I1595
tp510
a(I1595
I4
tp511
a(I4
I6
tp512
aa(lp513
(I115
I121
tp514
a(I121
I117
tp515
a(I117
I115
tp516
aa(lp517
(I1122
I969
tp518
a(I969
I967
tp519
a(I967
I1122
tp520
aa(lp521
(I194
I1342
tp522
a(I1342
I1339
tp523
a(I1339
I194
tp524
aa(lp525
(I469
I949
tp526
a(I949
I480
tp527
a(I480
I469
tp528
aa(lp529
(I1468
I1515
tp530
a(I1515
I1469
tp531
a(I1469
I1468
tp532
aa(lp533
(I361
I357
tp534
a(I357
I373
tp535
a(I373
I361
tp536
aa(lp537
(I1214
I1250
tp538
a(I1250
I1215
tp539
a(I1215
I1214
tp540
aa(lp541
(I745
I726
tp542
a(I726
I721
tp543
a(I721
I745
tp544
aa(lp545
(I1409
I1413
tp546
a(I1413
I1411
tp547
a(I1411
I1409
tp548
aa(lp549
(I1256
I1254
tp550
a(I1254
I142
tp551
a(I142
I1256
tp552
aa(lp553
(I855
I854
tp554
a(I854
I859
tp555
a(I859
I855
tp556
aa(lp557
(I858
I857
tp558
a(I857
I883
tp559
a(I883
I858
tp560
aa(lp561
(I848
I843
tp562
a(I843
I841
tp563
a(I841
I848
tp564
aa(lp565
(I1034
I1037
tp566
a(I1037
I1035
tp567
a(I1035
I1034
tp568
aa(lp569
(I1491
I1496
tp570
a(I1496
I1492
tp571
a(I1492
I1491
tp572
aa(lp573
(I724
I723
tp574
a(I723
I734
tp575
a(I734
I724
tp576
aa(lp577
(I922
I1585
tp578
a(I1585
I1574
tp579
a(I1574
I922
tp580
aa(lp581
(I1439
I1438
tp582
a(I1438
I1458
tp583
a(I1458
I1439
tp584
aa(lp585
(I320
I319
tp586
a(I319
I366
tp587
a(I366
I320
tp588
aa(lp589
(I196
I201
tp590
a(I201
I197
tp591
a(I197
I196
tp592
aa(lp593
(I1514
I1511
tp594
a(I1511
I1510
tp595
a(I1510
I1514
tp596
aa(lp597
(I1218
I1211
tp598
a(I1211
I1210
tp599
a(I1210
I1218
tp600
aa(lp601
(I870
I868
tp602
a(I868
I867
tp603
a(I867
I870
tp604
aa(lp605
(I180
I258
tp606
a(I258
I191
tp607
a(I191
I180
tp608
aa(lp609
(I773
I787
tp610
a(I787
I774
tp611
a(I774
I773
tp612
aa(lp613
(I466
I489
tp614
a(I489
I468
tp615
a(I468
I466
tp616
aa(lp617
(I379
I389
tp618
a(I389
I381
tp619
a(I381
I379
tp620
aa(lp621
(I465
I494
tp622
a(I494
I467
tp623
a(I467
I465
tp624
aa(lp625
(I1162
I1087
tp626
a(I1087
I1084
tp627
a(I1084
I1162
tp628
aa(lp629
(I879
I877
tp630
a(I877
I876
tp631
a(I876
I879
tp632
aa(lp633
(I422
I429
tp634
a(I429
I423
tp635
a(I423
I422
tp636
aa(lp637
(I27
I41
tp638
a(I41
I28
tp639
a(I28
I27
tp640
aa(lp641
(I944
I680
tp642
a(I680
I679
tp643
a(I679
I944
tp644
aa(lp645
(I1385
I1373
tp646
a(I1373
I1371
tp647
a(I1371
I1385
tp648
aa(lp649
(I1420
I1418
tp650
a(I1418
I1417
tp651
a(I1417
I1420
tp652
aa(lp653
(I645
I648
tp654
a(I648
I649
tp655
a(I649
I647
tp656
a(I647
I645
tp657
aa(lp658
(I170
I130
tp659
a(I130
I128
tp660
a(I128
I168
tp661
a(I168
I170
tp662
aa(lp663
(I130
I170
tp664
a(I170
I171
tp665
a(I171
I131
tp666
a(I131
I130
tp667
aa(lp668
(I886
I875
tp669
a(I875
I1130
tp670
a(I1130
I1141
tp671
a(I1141
I886
tp672
aa(lp673
(I250
I243
tp674
a(I243
I242
tp675
a(I242
I287
tp676
a(I287
I250
tp677
aa(lp678
(I1138
I1155
tp679
a(I1155
I1159
tp680
a(I1159
I1142
tp681
a(I1142
I1138
tp682
aa(lp683
(I1158
I1156
tp684
a(I1156
I1111
tp685
a(I1111
I1109
tp686
a(I1109
I1158
tp687
aa(lp688
(I1381
I1353
tp689
a(I1353
I1349
tp690
a(I1349
I1380
tp691
a(I1380
I1381
tp692
aa(lp693
(I501
I503
tp694
a(I503
I507
tp695
a(I507
I504
tp696
a(I504
I501
tp697
aa(lp698
(I618
I609
tp699
a(I609
I610
tp700
a(I610
I619
tp701
a(I619
I618
tp702
aa(lp703
(I1354
I1350
tp704
a(I1350
I1321
tp705
a(I1321
I1322
tp706
a(I1322
I1354
tp707
aa(lp708
(I187
I647
tp709
a(I647
I649
tp710
a(I649
I189
tp711
a(I189
I187
tp712
aa(lp713
(I1227
I1235
tp714
a(I1235
I1236
tp715
a(I1236
I1228
tp716
a(I1228
I1227
tp717
aa(lp718
(I1356
I1357
tp719
a(I1357
I1421
tp720
a(I1421
I1416
tp721
a(I1416
I1356
tp722
aa(lp723
(I473
I476
tp724
a(I476
I462
tp725
a(I462
I461
tp726
a(I461
I473
tp727
aa(lp728
(I1575
I1570
tp729
a(I1570
I1571
tp730
a(I1571
I1573
tp731
a(I1573
I1575
tp732
aa(lp733
(I1105
I996
tp734
a(I996
I995
tp735
a(I995
I1104
tp736
a(I1104
I1105
tp737
aa(lp738
(I1542
I1536
tp739
a(I1536
I1534
tp740
a(I1534
I1538
tp741
a(I1538
I1542
tp742
aa(lp743
(I230
I272
tp744
a(I272
I273
tp745
a(I273
I232
tp746
a(I232
I230
tp747
aa(lp748
(I33
I34
tp749
a(I34
I35
tp750
a(I35
I32
tp751
a(I32
I33
tp752
aa(lp753
(I520
I519
tp754
a(I519
I525
tp755
a(I525
I526
tp756
a(I526
I520
tp757
aa(lp758
(I610
I606
tp759
a(I606
I605
tp760
a(I605
I619
tp761
a(I619
I610
tp762
aa(lp763
(I1554
I1555
tp764
a(I1555
I1576
tp765
a(I1576
I1565
tp766
a(I1565
I1554
tp767
aa(lp768
(I844
I855
tp769
a(I855
I859
tp770
a(I859
I846
tp771
a(I846
I844
tp772
aa(lp773
(I813
I812
tp774
a(I812
I810
tp775
a(I810
I823
tp776
a(I823
I813
tp777
aa(lp778
(I1294
I1314
tp779
a(I1314
I1313
tp780
a(I1313
I1293
tp781
a(I1293
I1294
tp782
aa(lp783
(I416
I454
tp784
a(I454
I459
tp785
a(I459
I419
tp786
a(I419
I416
tp787
aa(lp788
(I1220
I1183
tp789
a(I1183
I1182
tp790
a(I1182
I1216
tp791
a(I1216
I1220
tp792
aa(lp793
(I595
I596
tp794
a(I596
I584
tp795
a(I584
I582
tp796
a(I582
I595
tp797
aa(lp798
(I665
I646
tp799
a(I646
I680
tp800
a(I680
I944
tp801
a(I944
I665
tp802
aa(lp803
(I742
I662
tp804
a(I662
I659
tp805
a(I659
I731
tp806
a(I731
I742
tp807
aa(lp808
(I1487
I1484
tp809
a(I1484
I1490
tp810
a(I1490
I1489
tp811
a(I1489
I1487
tp812
aa(lp813
(I627
I626
tp814
a(I626
I633
tp815
a(I633
I634
tp816
a(I634
I627
tp817
aa(lp818
(I1012
I1004
tp819
a(I1004
I1005
tp820
a(I1005
I1013
tp821
a(I1013
I1012
tp822
aa(lp823
(I109
I106
tp824
a(I106
I60
tp825
a(I60
I61
tp826
a(I61
I109
tp827
aa(lp828
(I982
I1102
tp829
a(I1102
I1115
tp830
a(I1115
I984
tp831
a(I984
I982
tp832
aa(lp833
(I286
I277
tp834
a(I277
I275
tp835
a(I275
I282
tp836
a(I282
I286
tp837
aa(lp838
(I64
I112
tp839
a(I112
I111
tp840
a(I111
I63
tp841
a(I63
I64
tp842
aa(lp843
(I836
I835
tp844
a(I835
I781
tp845
a(I781
I783
tp846
a(I783
I836
tp847
aa(lp848
(I1130
I875
tp849
a(I875
I853
tp850
a(I853
I1119
tp851
a(I1119
I1130
tp852
aa(lp853
(I1021
I1016
tp854
a(I1016
I1017
tp855
a(I1017
I1025
tp856
a(I1025
I1021
tp857
aa(lp858
(I54
I51
tp859
a(I51
I1247
tp860
a(I1247
I1248
tp861
a(I1248
I54
tp862
aa(lp863
(I492
I485
tp864
a(I485
I484
tp865
a(I484
I487
tp866
a(I487
I492
tp867
aa(lp868
(I960
I959
tp869
a(I959
I1205
tp870
a(I1205
I1239
tp871
a(I1239
I960
tp872
aa(lp873
(I322
I529
tp874
a(I529
I532
tp875
a(I532
I323
tp876
a(I323
I322
tp877
aa(lp878
(I367
I339
tp879
a(I339
I337
tp880
a(I337
I365
tp881
a(I365
I367
tp882
aa(lp883
(I1225
I1223
tp884
a(I1223
I1222
tp885
a(I1222
I1231
tp886
a(I1231
I1225
tp887
aa(lp888
(I388
I389
tp889
a(I389
I379
tp890
a(I379
I378
tp891
a(I378
I388
tp892
aa(lp893
(I1187
I1055
tp894
a(I1055
I1050
tp895
a(I1050
I1190
tp896
a(I1190
I1187
tp897
aa(lp898
(I175
I103
tp899
a(I103
I95
tp900
a(I95
I96
tp901
a(I96
I175
tp902
aa(lp903
(I791
I825
tp904
a(I825
I702
tp905
a(I702
I698
tp906
a(I698
I791
tp907
aa(lp908
(I612
I608
tp909
a(I608
I609
tp910
a(I609
I618
tp911
a(I618
I612
tp912
aa(lp913
(I154
I155
tp914
a(I155
I164
tp915
a(I164
I162
tp916
a(I162
I154
tp917
aa(lp918
(I1078
I1094
tp919
a(I1094
I1095
tp920
a(I1095
I1079
tp921
a(I1079
I1078
tp922
aa(lp923
(I1393
I1394
tp924
a(I1394
I1302
tp925
a(I1302
I1301
tp926
a(I1301
I1393
tp927
aa(lp928
(I341
I340
tp929
a(I340
I343
tp930
a(I343
I344
tp931
a(I344
I341
tp932
aa(lp933
(I55
I56
tp934
a(I56
I52
tp935
a(I52
I50
tp936
a(I50
I55
tp937
aa(lp938
(I800
I806
tp939
a(I806
I809
tp940
a(I809
I801
tp941
a(I801
I800
tp942
aa(lp943
(I552
I550
tp944
a(I550
I545
tp945
a(I545
I544
tp946
a(I544
I552
tp947
aa(lp948
(I803
I778
tp949
a(I778
I777
tp950
a(I777
I793
tp951
a(I793
I803
tp952
aa(lp953
(I184
I186
tp954
a(I186
I183
tp955
a(I183
I182
tp956
a(I182
I184
tp957
aa(lp958
(I312
I314
tp959
a(I314
I592
tp960
a(I592
I589
tp961
a(I589
I312
tp962
aa(lp963
(I1052
I72
tp964
a(I72
I1167
tp965
a(I1167
I1054
tp966
a(I1054
I1052
tp967
aa(lp968
(I1094
I1078
tp969
a(I1078
I1077
tp970
a(I1077
I1089
tp971
a(I1089
I1094
tp972
aa(lp973
(I664
I446
tp974
a(I446
I662
tp975
a(I662
I742
tp976
a(I742
I664
tp977
aa(lp978
(I80
I69
tp979
a(I69
I14
tp980
a(I14
I58
tp981
a(I58
I80
tp982
aa(lp983
(I729
I736
tp984
a(I736
I735
tp985
a(I735
I727
tp986
a(I727
I729
tp987
aa(lp988
(I81
I87
tp989
a(I87
I94
tp990
a(I94
I82
tp991
a(I82
I81
tp992
aa(lp993
(I209
I207
tp994
a(I207
I643
tp995
a(I643
I644
tp996
a(I644
I209
tp997
aa(lp998
(I517
I547
tp999
a(I547
I548
tp1000
a(I548
I518
tp1001
a(I518
I517
tp1002
aa(lp1003
(I912
I911
tp1004
a(I911
I892
tp1005
a(I892
I893
tp1006
a(I893
I912
tp1007
aa(lp1008
(I1296
I1298
tp1009
a(I1298
I1291
tp1010
a(I1291
I1290
tp1011
a(I1290
I1296
tp1012
aa(lp1013
(I1268
I1273
tp1014
a(I1273
I1270
tp1015
a(I1270
I1269
tp1016
a(I1269
I1268
tp1017
aa(lp1018
(I359
I360
tp1019
a(I360
I372
tp1020
a(I372
I368
tp1021
a(I368
I359
tp1022
aa(lp1023
(I98
I120
tp1024
a(I120
I122
tp1025
a(I122
I99
tp1026
a(I99
I98
tp1027
aa(lp1028
(I772
I776
tp1029
a(I776
I787
tp1030
a(I787
I773
tp1031
a(I773
I772
tp1032
aa(lp1033
(I1117
I1120
tp1034
a(I1120
I1103
tp1035
a(I1103
I1101
tp1036
a(I1101
I1117
tp1037
aa(lp1038
(I74
I75
tp1039
a(I75
I67
tp1040
a(I67
I66
tp1041
a(I66
I74
tp1042
aa(lp1043
(I1480
I1450
tp1044
a(I1450
I1451
tp1045
a(I1451
I1481
tp1046
a(I1481
I1480
tp1047
aa(lp1048
(I1481
I1451
tp1049
a(I1451
I1453
tp1050
a(I1453
I1482
tp1051
a(I1482
I1481
tp1052
aa(lp1053
(I663
I557
tp1054
a(I557
I224
tp1055
a(I224
I661
tp1056
a(I661
I663
tp1057
aa(lp1058
(I481
I483
tp1059
a(I483
I486
tp1060
a(I486
I482
tp1061
a(I482
I481
tp1062
aa(lp1063
(I1412
I1414
tp1064
a(I1414
I1310
tp1065
a(I1310
I1307
tp1066
a(I1307
I1412
tp1067
aa(lp1068
(I145
I146
tp1069
a(I146
I150
tp1070
a(I150
I149
tp1071
a(I149
I145
tp1072
aa(lp1073
(I1539
I1540
tp1074
a(I1540
I1532
tp1075
a(I1532
I1531
tp1076
a(I1531
I1539
tp1077
aa(lp1078
(I1097
I1064
tp1079
a(I1064
I1086
tp1080
a(I1086
I1108
tp1081
a(I1108
I1097
tp1082
aa(lp1083
(I951
I968
tp1084
a(I968
I1128
tp1085
a(I1128
I954
tp1086
a(I954
I951
tp1087
aa(lp1088
(I441
I631
tp1089
a(I631
I470
tp1090
a(I470
I443
tp1091
a(I443
I441
tp1092
aa(lp1093
(I424
I905
tp1094
a(I905
I291
tp1095
a(I291
I269
tp1096
a(I269
I424
tp1097
aa(lp1098
(I1039
I1033
tp1099
a(I1033
I1330
tp1100
a(I1330
I1319
tp1101
a(I1319
I1039
tp1102
aa(lp1103
(I1171
I1170
tp1104
a(I1170
I1177
tp1105
a(I1177
I1178
tp1106
a(I1178
I1171
tp1107
aa(lp1108
(I1582
I1594
tp1109
a(I1594
I5
tp1110
a(I5
I1583
tp1111
a(I1583
I1582
tp1112
aa(lp1113
(I1169
I1174
tp1114
a(I1174
I1177
tp1115
a(I1177
I1170
tp1116
a(I1170
I1169
tp1117
aa(lp1118
(I202
I225
tp1119
a(I225
I1452
tp1120
a(I1452
I1430
tp1121
a(I1430
I202
tp1122
aa(lp1123
(I1389
I1387
tp1124
a(I1387
I1388
tp1125
a(I1388
I1391
tp1126
a(I1391
I1389
tp1127
aa(lp1128
(I319
I317
tp1129
a(I317
I354
tp1130
a(I354
I366
tp1131
a(I366
I319
tp1132
aa(lp1133
(I1044
I1031
tp1134
a(I1031
I1029
tp1135
a(I1029
I1043
tp1136
a(I1043
I1044
tp1137
aa(lp1138
(I338
I321
tp1139
a(I321
I318
tp1140
a(I318
I364
tp1141
a(I364
I338
tp1142
aa(lp1143
(I567
I566
tp1144
a(I566
I571
tp1145
a(I571
I577
tp1146
a(I577
I567
tp1147
aa(lp1148
(I508
I498
tp1149
a(I498
I497
tp1150
a(I497
I505
tp1151
a(I505
I508
tp1152
aa(lp1153
(I866
I755
tp1154
a(I755
I752
tp1155
a(I752
I852
tp1156
a(I852
I866
tp1157
aa(lp1158
(I215
I562
tp1159
a(I562
I220
tp1160
a(I220
I214
tp1161
a(I214
I215
tp1162
aa(lp1163
(I147
I945
tp1164
a(I945
I347
tp1165
a(I347
I158
tp1166
a(I158
I147
tp1167
aa(lp1168
(I1085
I1087
tp1169
a(I1087
I1162
tp1170
a(I1162
I1114
tp1171
a(I1114
I1085
tp1172
aa(lp1173
(I592
I314
tp1174
a(I314
I309
tp1175
a(I309
I581
tp1176
a(I581
I592
tp1177
aa(lp1178
(I125
I945
tp1179
a(I945
I147
tp1180
a(I147
I114
tp1181
a(I114
I125
tp1182
aa(lp1183
(I770
I769
tp1184
a(I769
I939
tp1185
a(I939
I784
tp1186
a(I784
I770
tp1187
aa(lp1188
(I372
I360
tp1189
a(I360
I361
tp1190
a(I361
I373
tp1191
a(I373
I372
tp1192
aa(lp1193
(I216
I212
tp1194
a(I212
I211
tp1195
a(I211
I217
tp1196
a(I217
I216
tp1197
aa(lp1198
(I384
I498
tp1199
a(I498
I508
tp1200
a(I508
I386
tp1201
a(I386
I384
tp1202
aa(lp1203
(I193
I650
tp1204
a(I650
I195
tp1205
a(I195
I192
tp1206
a(I192
I193
tp1207
aa(lp1208
(I23
I31
tp1209
a(I31
I29
tp1210
a(I29
I22
tp1211
a(I22
I23
tp1212
aa(lp1213
(I434
I433
tp1214
a(I433
I511
tp1215
a(I511
I512
tp1216
a(I512
I434
tp1217
aa(lp1218
(I160
I159
tp1219
a(I159
I163
tp1220
a(I163
I165
tp1221
a(I165
I160
tp1222
aa(lp1223
(I1053
I964
tp1224
a(I964
I1019
tp1225
a(I1019
I1042
tp1226
a(I1042
I1053
tp1227
aa(lp1228
(I1145
I1144
tp1229
a(I1144
I1160
tp1230
a(I1160
I1149
tp1231
a(I1149
I1145
tp1232
aa(lp1233
(I622
I615
tp1234
a(I615
I614
tp1235
a(I614
I620
tp1236
a(I620
I622
tp1237
aa(lp1238
(I1076
I1074
tp1239
a(I1074
I1081
tp1240
a(I1081
I1088
tp1241
a(I1088
I1076
tp1242
aa(lp1243
(I949
I469
tp1244
a(I469
I447
tp1245
a(I447
I947
tp1246
a(I947
I949
tp1247
aa(lp1248
(I915
I935
tp1249
a(I935
I918
tp1250
a(I918
I916
tp1251
a(I916
I915
tp1252
aa(lp1253
(I1525
I1503
tp1254
a(I1503
I1501
tp1255
a(I1501
I1528
tp1256
a(I1528
I1525
tp1257
aa(lp1258
(I403
I397
tp1259
a(I397
I395
tp1260
a(I395
I405
tp1261
a(I405
I403
tp1262
aa(lp1263
(I268
I257
tp1264
a(I257
I256
tp1265
a(I256
I267
tp1266
a(I267
I268
tp1267
aa(lp1268
(I910
I907
tp1269
a(I907
I906
tp1270
a(I906
I909
tp1271
a(I909
I910
tp1272
aa(lp1273
(I1149
I1160
tp1274
a(I1160
I1161
tp1275
a(I1161
I1150
tp1276
a(I1150
I1149
tp1277
aa(lp1278
(I177
I90
tp1279
a(I90
I88
tp1280
a(I88
I174
tp1281
a(I174
I177
tp1282
aa(lp1283
(I1232
I1203
tp1284
a(I1203
I1204
tp1285
a(I1204
I1234
tp1286
a(I1234
I1232
tp1287
aa(lp1288
(I478
I479
tp1289
a(I479
I483
tp1290
a(I483
I481
tp1291
a(I481
I478
tp1292
aa(lp1293
(I482
I477
tp1294
a(I477
I478
tp1295
a(I478
I481
tp1296
a(I481
I482
tp1297
aa(lp1298
(I954
I1128
tp1299
a(I1128
I1129
tp1300
a(I1129
I955
tp1301
a(I955
I954
tp1302
aa(lp1303
(I1455
I1479
tp1304
a(I1479
I1478
tp1305
a(I1478
I1447
tp1306
a(I1447
I1455
tp1307
aa(lp1308
(I1506
I1505
tp1309
a(I1505
I1526
tp1310
a(I1526
I1527
tp1311
a(I1527
I1506
tp1312
aa(lp1313
(I1028
I1040
tp1314
a(I1040
I1043
tp1315
a(I1043
I1029
tp1316
a(I1029
I1028
tp1317
aa(lp1318
(I370
I371
tp1319
a(I371
I509
tp1320
a(I509
I382
tp1321
a(I382
I370
tp1322
aa(lp1323
(I199
I651
tp1324
a(I651
I655
tp1325
a(I655
I200
tp1326
a(I200
I199
tp1327
aa(lp1328
(I444
I411
tp1329
a(I411
I409
tp1330
a(I409
I431
tp1331
a(I431
I444
tp1332
aa(lp1333
(I1037
I1024
tp1334
a(I1024
I1023
tp1335
a(I1023
I1035
tp1336
a(I1035
I1037
tp1337
aa(lp1338
(I148
I1260
tp1339
a(I1260
I1258
tp1340
a(I1258
I144
tp1341
a(I144
I148
tp1342
aa(lp1343
(I293
I561
tp1344
a(I561
I307
tp1345
a(I307
I294
tp1346
a(I294
I293
tp1347
aa(lp1348
(I1217
I1218
tp1349
a(I1218
I1210
tp1350
a(I1210
I1207
tp1351
a(I1207
I1217
tp1352
aa(lp1353
(I565
I564
tp1354
a(I564
I567
tp1355
a(I567
I577
tp1356
a(I577
I565
tp1357
aa(lp1358
(I1594
I1595
tp1359
a(I1595
I6
tp1360
a(I6
I5
tp1361
a(I5
I1594
tp1362
aa(lp1363
(I1
I708
tp1364
a(I708
I819
tp1365
a(I819
I0
tp1366
a(I0
I1
tp1367
aa(lp1368
(I1424
I1422
tp1369
a(I1422
I1434
tp1370
a(I1434
I1470
tp1371
a(I1470
I1424
tp1372
aa(lp1373
(I1557
I1556
tp1374
a(I1556
I1578
tp1375
a(I1578
I1579
tp1376
a(I1579
I1557
tp1377
aa(lp1378
(I689
I690
tp1379
a(I690
I940
tp1380
a(I940
I771
tp1381
a(I771
I689
tp1382
aa(lp1383
(I1118
I1121
tp1384
a(I1121
I1120
tp1385
a(I1120
I1117
tp1386
a(I1117
I1118
tp1387
aa(lp1388
(I798
I796
tp1389
a(I796
I804
tp1390
a(I804
I805
tp1391
a(I805
I798
tp1392
aa(lp1393
(I636
I629
tp1394
a(I629
I628
tp1395
a(I628
I642
tp1396
a(I642
I636
tp1397
aa(lp1398
(I1113
I1083
tp1399
a(I1083
I1082
tp1400
a(I1082
I1112
tp1401
a(I1112
I1113
tp1402
aa(lp1403
(I1172
I1179
tp1404
a(I1179
I1165
tp1405
a(I1165
I1163
tp1406
a(I1163
I1172
tp1407
aa(lp1408
(I825
I791
tp1409
a(I791
I790
tp1410
a(I790
I822
tp1411
a(I822
I825
tp1412
aa(lp1413
(I526
I527
tp1414
a(I527
I521
tp1415
a(I521
I520
tp1416
a(I520
I526
tp1417
aa(lp1418
(I1333
I12
tp1419
a(I12
I13
tp1420
a(I13
I1334
tp1421
a(I1334
I1333
tp1422
aa(lp1423
(I558
I546
tp1424
a(I546
I602
tp1425
a(I602
I635
tp1426
a(I635
I558
tp1427
aa(lp1428
(I532
I529
tp1429
a(I529
I531
tp1430
a(I531
I533
tp1431
a(I533
I532
tp1432
aa(lp1433
(I141
I140
tp1434
a(I140
I183
tp1435
a(I183
I186
tp1436
a(I186
I141
tp1437
aa(lp1438
(I669
I668
tp1439
a(I668
I743
tp1440
a(I743
I748
tp1441
a(I748
I669
tp1442
aa(lp1443
(I160
I165
tp1444
a(I165
I166
tp1445
a(I166
I161
tp1446
a(I161
I160
tp1447
aa(lp1448
(I1091
I1090
tp1449
a(I1090
I1107
tp1450
a(I1107
I1133
tp1451
a(I1133
I1091
tp1452
aa(lp1453
(I1548
I1561
tp1454
a(I1561
I1545
tp1455
a(I1545
I1546
tp1456
a(I1546
I1548
tp1457
aa(lp1458
(I1378
I1320
tp1459
a(I1320
I1321
tp1460
a(I1321
I1350
tp1461
a(I1350
I1351
tp1462
a(I1351
I1378
tp1463
aa(lp1464
(I691
I943
tp1465
a(I943
I941
tp1466
a(I941
I940
tp1467
a(I940
I690
tp1468
a(I690
I691
tp1469
aa(lp1470
(I530
I531
tp1471
a(I531
I529
tp1472
a(I529
I322
tp1473
a(I322
I328
tp1474
a(I328
I530
tp1475
aa(lp1476
(I735
I736
tp1477
a(I736
I737
tp1478
a(I737
I714
tp1479
a(I714
I713
tp1480
a(I713
I735
tp1481
aa(lp1482
(I79
I76
tp1483
a(I76
I77
tp1484
a(I77
I70
tp1485
a(I70
I68
tp1486
a(I68
I79
tp1487
aa(lp1488
(I692
I693
tp1489
a(I693
I672
tp1490
a(I672
I671
tp1491
a(I671
I683
tp1492
a(I683
I692
tp1493
aa(lp1494
(I455
I453
tp1495
a(I453
I452
tp1496
a(I452
I417
tp1497
a(I417
I418
tp1498
a(I418
I455
tp1499
aa(lp1500
(I448
I445
tp1501
a(I445
I414
tp1502
a(I414
I415
tp1503
a(I415
I451
tp1504
a(I451
I448
tp1505
aa(lp1506
(I61
I63
tp1507
a(I63
I111
tp1508
a(I111
I110
tp1509
a(I110
I109
tp1510
a(I109
I61
tp1511
aa(lp1512
(I1419
I169
tp1513
a(I169
I213
tp1514
a(I213
I202
tp1515
a(I202
I1430
tp1516
a(I1430
I1419
tp1517
aa(lp1518
(I490
I492
tp1519
a(I492
I487
tp1520
a(I487
I488
tp1521
a(I488
I493
tp1522
a(I493
I490
tp1523
aa(lp1524
(I0
I819
tp1525
a(I819
I1041
tp1526
a(I1041
I1152
tp1527
a(I1152
I930
tp1528
a(I930
I0
tp1529
aa(lp1530
(I914
I943
tp1531
a(I943
I691
tp1532
a(I691
I678
tp1533
a(I678
I677
tp1534
a(I677
I914
tp1535
aa(lp1536
(I901
I903
tp1537
a(I903
I904
tp1538
a(I904
I413
tp1539
a(I413
I402
tp1540
a(I402
I901
tp1541
aa(lp1542
(I121
I120
tp1543
a(I120
I98
tp1544
a(I98
I97
tp1545
a(I97
I117
tp1546
a(I117
I121
tp1547
aa(lp1548
(I1209
I1246
tp1549
a(I1246
I55
tp1550
a(I55
I50
tp1551
a(I50
I1213
tp1552
a(I1213
I1209
tp1553
aa(lp1554
(I758
I756
tp1555
a(I756
I871
tp1556
a(I871
I879
tp1557
a(I879
I876
tp1558
a(I876
I758
tp1559
aa(lp1560
(I87
I89
tp1561
a(I89
I96
tp1562
a(I96
I95
tp1563
a(I95
I94
tp1564
a(I94
I87
tp1565
aa(lp1566
(I713
I712
tp1567
a(I712
I719
tp1568
a(I719
I727
tp1569
a(I727
I735
tp1570
a(I735
I713
tp1571
aa(lp1572
(I162
I164
tp1573
a(I164
I166
tp1574
a(I166
I165
tp1575
a(I165
I163
tp1576
a(I163
I162
tp1577
aa(lp1578
(I1268
I1242
tp1579
a(I1242
I1240
tp1580
a(I1240
I1271
tp1581
a(I1271
I1273
tp1582
a(I1273
I1268
tp1583
aa(lp1584
(I420
I456
tp1585
a(I456
I457
tp1586
a(I457
I455
tp1587
a(I455
I418
tp1588
a(I418
I420
tp1589
aa(lp1590
(I999
I998
tp1591
a(I998
I990
tp1592
a(I990
I993
tp1593
a(I993
I1007
tp1594
a(I1007
I999
tp1595
aa(lp1596
(I517
I516
tp1597
a(I516
I540
tp1598
a(I540
I543
tp1599
a(I543
I547
tp1600
a(I547
I517
tp1601
aa(lp1602
(I1440
I1445
tp1603
a(I1445
I1444
tp1604
a(I1444
I1443
tp1605
a(I1443
I1437
tp1606
a(I1437
I1440
tp1607
aa(lp1608
(I1296
I1290
tp1609
a(I1290
I1293
tp1610
a(I1293
I1313
tp1611
a(I1313
I1295
tp1612
a(I1295
I1296
tp1613
aa(lp1614
(I1046
I1061
tp1615
a(I1061
I1063
tp1616
a(I1063
I979
tp1617
a(I979
I978
tp1618
a(I978
I1046
tp1619
aa(lp1620
(I1352
I1186
tp1621
a(I1186
I1175
tp1622
a(I1175
I1164
tp1623
a(I1164
I1241
tp1624
a(I1241
I1352
tp1625
aa(lp1626
(I780
I781
tp1627
a(I781
I835
tp1628
a(I835
I704
tp1629
a(I704
I699
tp1630
a(I699
I780
tp1631
aa(lp1632
(I199
I953
tp1633
a(I953
I808
tp1634
a(I808
I831
tp1635
a(I831
I651
tp1636
a(I651
I199
tp1637
aa(lp1638
(I580
I613
tp1639
a(I613
I624
tp1640
a(I624
I602
tp1641
a(I602
I546
tp1642
a(I546
I580
tp1643
aa(lp1644
(I102
I91
tp1645
a(I91
I25
tp1646
a(I25
I14
tp1647
a(I14
I69
tp1648
a(I69
I102
tp1649
aa(lp1650
(I1311
I1418
tp1651
a(I1418
I1420
tp1652
a(I1420
I928
tp1653
a(I928
I927
tp1654
a(I927
I1311
tp1655
aa(lp1656
(I596
I594
tp1657
a(I594
I593
tp1658
a(I593
I583
tp1659
a(I583
I584
tp1660
a(I584
I596
tp1661
aa(lp1662
(I1410
I1411
tp1663
a(I1411
I1413
tp1664
a(I1413
I1414
tp1665
a(I1414
I1412
tp1666
a(I1412
I1410
tp1667
aa(lp1668
(I1172
I1171
tp1669
a(I1171
I1178
tp1670
a(I1178
I1180
tp1671
a(I1180
I1179
tp1672
a(I1179
I1172
tp1673
aa(lp1674
(I62
I59
tp1675
a(I59
I110
tp1676
a(I110
I111
tp1677
a(I111
I112
tp1678
a(I112
I62
tp1679
aa(lp1680
(I749
I750
tp1681
a(I750
I746
tp1682
a(I746
I717
tp1683
a(I717
I718
tp1684
a(I718
I749
tp1685
aa(lp1686
(I1303
I1398
tp1687
a(I1398
I1406
tp1688
a(I1406
I1407
tp1689
a(I1407
I1306
tp1690
a(I1306
I1303
tp1691
aa(lp1692
(I1377
I1390
tp1693
a(I1390
I1389
tp1694
a(I1389
I1391
tp1695
a(I1391
I1376
tp1696
a(I1376
I1377
tp1697
aa(lp1698
(I166
I164
tp1699
a(I164
I155
tp1700
a(I155
I152
tp1701
a(I152
I161
tp1702
a(I161
I166
tp1703
aa(lp1704
(I331
I554
tp1705
a(I554
I553
tp1706
a(I553
I542
tp1707
a(I542
I329
tp1708
a(I329
I331
tp1709
aa(lp1710
(I1183
I1220
tp1711
a(I1220
I1221
tp1712
a(I1221
I1193
tp1713
a(I1193
I1184
tp1714
a(I1184
I1183
tp1715
aa(lp1716
(I105
I104
tp1717
a(I104
I124
tp1718
a(I124
I126
tp1719
a(I126
I107
tp1720
a(I107
I105
tp1721
aa(lp1722
(I1083
I1113
tp1723
a(I1113
I1114
tp1724
a(I1114
I1162
tp1725
a(I1162
I1084
tp1726
a(I1084
I1083
tp1727
aa(lp1728
(I762
I898
tp1729
a(I898
I901
tp1730
a(I901
I402
tp1731
a(I402
I391
tp1732
a(I391
I762
tp1733
aa(lp1734
(I536
I349
tp1735
a(I349
I326
tp1736
a(I326
I327
tp1737
a(I327
I534
tp1738
a(I534
I536
tp1739
aa(lp1740
(I289
I244
tp1741
a(I244
I245
tp1742
a(I245
I561
tp1743
a(I561
I293
tp1744
a(I293
I289
tp1745
aa(lp1746
(I754
I865
tp1747
a(I865
I880
tp1748
a(I880
I887
tp1749
a(I887
I760
tp1750
a(I760
I754
tp1751
aa(lp1752
(I775
I675
tp1753
a(I675
I697
tp1754
a(I697
I656
tp1755
a(I656
I653
tp1756
a(I653
I775
tp1757
aa(lp1758
(I1554
I1565
tp1759
a(I1565
I1566
tp1760
a(I1566
I1564
tp1761
a(I1564
I1549
tp1762
a(I1549
I1554
tp1763
aa(lp1764
(I540
I541
tp1765
a(I541
I544
tp1766
a(I544
I545
tp1767
a(I545
I543
tp1768
a(I543
I540
tp1769
aa(lp1770
(I1382
I1392
tp1771
a(I1392
I1327
tp1772
a(I1327
I1328
tp1773
a(I1328
I1383
tp1774
a(I1383
I1382
tp1775
aa(lp1776
(I135
I142
tp1777
a(I142
I1254
tp1778
a(I1254
I1251
tp1779
a(I1251
I133
tp1780
a(I133
I135
tp1781
aa(lp1782
(I1497
I1486
tp1783
a(I1486
I236
tp1784
a(I236
I1519
tp1785
a(I1519
I1530
tp1786
a(I1530
I1497
tp1787
aa(lp1788
(I1341
I1264
tp1789
a(I1264
I1006
tp1790
a(I1006
I994
tp1791
a(I994
I966
tp1792
a(I966
I1341
tp1793
aa(lp1794
(I658
I113
tp1795
a(I113
I2
tp1796
a(I2
I709
tp1797
a(I709
I720
tp1798
a(I720
I658
tp1799
aa(lp1800
(I763
I733
tp1801
a(I733
I734
tp1802
a(I734
I723
tp1803
a(I723
I725
tp1804
a(I725
I763
tp1805
aa(lp1806
(I197
I201
tp1807
a(I201
I203
tp1808
a(I203
I1343
tp1809
a(I1343
I1340
tp1810
a(I1340
I197
tp1811
aa(lp1812
(I538
I533
tp1813
a(I533
I531
tp1814
a(I531
I530
tp1815
a(I530
I539
tp1816
a(I539
I538
tp1817
aa(lp1818
(I837
I836
tp1819
a(I836
I783
tp1820
a(I783
I782
tp1821
a(I782
I840
tp1822
a(I840
I837
tp1823
aa(lp1824
(I333
I341
tp1825
a(I341
I344
tp1826
a(I344
I342
tp1827
a(I342
I334
tp1828
a(I334
I333
tp1829
aa(lp1830
(I906
I900
tp1831
a(I900
I894
tp1832
a(I894
I895
tp1833
a(I895
I909
tp1834
a(I909
I906
tp1835
aa(lp1836
(I1040
I1028
tp1837
a(I1028
I1033
tp1838
a(I1033
I1039
tp1839
a(I1039
I1038
tp1840
a(I1038
I1040
tp1841
aa(lp1842
(I1499
I1501
tp1843
a(I1501
I1503
tp1844
a(I1503
I1502
tp1845
a(I1502
I1498
tp1846
a(I1498
I1499
tp1847
aa(lp1848
(I1502
I1503
tp1849
a(I1503
I1525
tp1850
a(I1525
I1526
tp1851
a(I1526
I1505
tp1852
a(I1505
I1502
tp1853
aa(lp1854
(I622
I620
tp1855
a(I620
I603
tp1856
a(I603
I600
tp1857
a(I600
I616
tp1858
a(I616
I622
tp1859
aa(lp1860
(I509
I371
tp1861
a(I371
I346
tp1862
a(I346
I348
tp1863
a(I348
I510
tp1864
a(I510
I509
tp1865
aa(lp1866
(I474
I473
tp1867
a(I473
I461
tp1868
a(I461
I463
tp1869
a(I463
I475
tp1870
a(I475
I474
tp1871
aa(lp1872
(I901
I898
tp1873
a(I898
I899
tp1874
a(I899
I902
tp1875
a(I902
I903
tp1876
a(I903
I901
tp1877
aa(lp1878
(I198
I204
tp1879
a(I204
I203
tp1880
a(I203
I201
tp1881
a(I201
I196
tp1882
a(I196
I198
tp1883
aa(lp1884
(I1488
I1491
tp1885
a(I1491
I1492
tp1886
a(I1492
I1490
tp1887
a(I1490
I1484
tp1888
a(I1484
I1488
tp1889
aa(lp1890
(I256
I253
tp1891
a(I253
I252
tp1892
a(I252
I261
tp1893
a(I261
I267
tp1894
a(I267
I256
tp1895
aa(lp1896
(I365
I356
tp1897
a(I356
I359
tp1898
a(I359
I368
tp1899
a(I368
I367
tp1900
a(I367
I365
tp1901
aa(lp1902
(I837
I705
tp1903
a(I705
I704
tp1904
a(I704
I835
tp1905
a(I835
I836
tp1906
a(I836
I837
tp1907
aa(lp1908
(I1317
I1376
tp1909
a(I1376
I1391
tp1910
a(I1391
I1388
tp1911
a(I1388
I1326
tp1912
a(I1326
I1317
tp1913
aa(lp1914
(I43
I45
tp1915
a(I45
I46
tp1916
a(I46
I48
tp1917
a(I48
I39
tp1918
a(I39
I43
tp1919
aa(lp1920
(I494
I465
tp1921
a(I465
I464
tp1922
a(I464
I490
tp1923
a(I490
I493
tp1924
a(I493
I494
tp1925
aa(lp1926
(I1009
I1012
tp1927
a(I1012
I1013
tp1928
a(I1013
I1003
tp1929
a(I1003
I1002
tp1930
a(I1002
I1009
tp1931
aa(lp1932
(I1230
I1219
tp1933
a(I1219
I1153
tp1934
a(I1153
I1097
tp1935
a(I1097
I1108
tp1936
a(I1108
I1230
tp1937
aa(lp1938
(I1119
I853
tp1939
a(I853
I864
tp1940
a(I864
I1008
tp1941
a(I1008
I986
tp1942
a(I986
I1119
tp1943
aa(lp1944
(I1195
I1192
tp1945
a(I1192
I1194
tp1946
a(I1194
I1206
tp1947
a(I1206
I1196
tp1948
a(I1196
I1195
tp1949
aa(lp1950
(I31
I33
tp1951
a(I33
I32
tp1952
a(I32
I30
tp1953
a(I30
I29
tp1954
a(I29
I31
tp1955
aa(lp1956
(I279
I264
tp1957
a(I264
I255
tp1958
a(I255
I254
tp1959
a(I254
I274
tp1960
a(I274
I279
tp1961
aa(lp1962
(I12
I1333
tp1963
a(I1333
I1336
tp1964
a(I1336
I15
tp1965
a(I15
I11
tp1966
a(I11
I12
tp1967
aa(lp1968
(I879
I871
tp1969
a(I871
I869
tp1970
a(I869
I872
tp1971
a(I872
I877
tp1972
a(I877
I879
tp1973
aa(lp1974
(I351
I352
tp1975
a(I352
I316
tp1976
a(I316
I315
tp1977
a(I315
I345
tp1978
a(I345
I351
tp1979
aa(lp1980
(I1524
I1533
tp1981
a(I1533
I1518
tp1982
a(I1518
I1520
tp1983
a(I1520
I1523
tp1984
a(I1523
I1524
tp1985
aa(lp1986
(I1512
I1471
tp1987
a(I1471
I1466
tp1988
a(I1466
I1467
tp1989
a(I1467
I1509
tp1990
a(I1509
I1512
tp1991
aa(lp1992
(I728
I738
tp1993
a(I738
I737
tp1994
a(I737
I736
tp1995
a(I736
I729
tp1996
a(I729
I728
tp1997
aa(lp1998
(I66
I1189
tp1999
a(I1189
I1188
tp2000
a(I1188
I73
tp2001
a(I73
I74
tp2002
a(I74
I66
tp2003
aa(lp2004
(I18
I17
tp2005
a(I17
I212
tp2006
a(I212
I216
tp2007
a(I216
I19
tp2008
a(I19
I18
tp2009
aa(lp2010
(I153
I157
tp2011
a(I157
I156
tp2012
a(I156
I1266
tp2013
a(I1266
I1262
tp2014
a(I1262
I153
tp2015
aa(lp2016
(I992
I1000
tp2017
a(I1000
I999
tp2018
a(I999
I1007
tp2019
a(I1007
I991
tp2020
a(I991
I992
tp2021
aa(lp2022
(I1511
I1514
tp2023
a(I1514
I1515
tp2024
a(I1515
I1468
tp2025
a(I1468
I1465
tp2026
a(I1465
I1511
tp2027
aa(lp2028
(I926
I925
tp2029
a(I925
I963
tp2030
a(I963
I1288
tp2031
a(I1288
I1289
tp2032
a(I1289
I926
tp2033
aa(lp2034
(I1365
I1355
tp2035
a(I1355
I1356
tp2036
a(I1356
I1416
tp2037
a(I1416
I1415
tp2038
a(I1415
I1365
tp2039
aa(lp2040
(I1165
I1179
tp2041
a(I1179
I1180
tp2042
a(I1180
I1069
tp2043
a(I1069
I1067
tp2044
a(I1067
I1165
tp2045
aa(lp2046
(I1379
I1378
tp2047
a(I1378
I1351
tp2048
a(I1351
I1353
tp2049
a(I1353
I1381
tp2050
a(I1381
I1379
tp2051
aa(lp2052
(I1201
I1202
tp2053
a(I1202
I1235
tp2054
a(I1235
I1227
tp2055
a(I1227
I1226
tp2056
a(I1226
I1201
tp2057
aa(lp2058
(I141
I186
tp2059
a(I186
I184
tp2060
a(I184
I1284
tp2061
a(I1284
I1278
tp2062
a(I1278
I141
tp2063
aa(lp2064
(I75
I78
tp2065
a(I78
I79
tp2066
a(I79
I68
tp2067
a(I68
I67
tp2068
a(I67
I75
tp2069
aa(lp2070
(I460
I456
tp2071
a(I456
I420
tp2072
a(I420
I419
tp2073
a(I419
I459
tp2074
a(I459
I460
tp2075
aa(lp2076
(I515
I514
tp2077
a(I514
I537
tp2078
a(I537
I538
tp2079
a(I538
I539
tp2080
a(I539
I515
tp2081
aa(lp2082
(I1020
I1021
tp2083
a(I1021
I1025
tp2084
a(I1025
I1015
tp2085
a(I1015
I1014
tp2086
a(I1014
I1020
tp2087
aa(lp2088
(I1564
I1568
tp2089
a(I1568
I1567
tp2090
a(I1567
I1550
tp2091
a(I1550
I1549
tp2092
a(I1549
I1564
tp2093
aa(lp2094
(I1387
I1384
tp2095
a(I1384
I1325
tp2096
a(I1325
I1326
tp2097
a(I1326
I1388
tp2098
a(I1388
I1387
tp2099
aa(lp2100
(I576
I607
tp2101
a(I607
I605
tp2102
a(I605
I606
tp2103
a(I606
I573
tp2104
a(I573
I576
tp2105
aa(lp2106
(I833
I827
tp2107
a(I827
I817
tp2108
a(I817
I821
tp2109
a(I821
I834
tp2110
a(I834
I833
tp2111
aa(lp2112
(I827
I833
tp2113
a(I833
I830
tp2114
a(I830
I832
tp2115
a(I832
I828
tp2116
a(I828
I827
tp2117
aa(lp2118
(I1168
I1167
tp2119
a(I1167
I72
tp2120
a(I72
I73
tp2121
a(I73
I1188
tp2122
a(I1188
I1168
tp2123
aa(lp2124
(I1337
I1277
tp2125
a(I1277
I1285
tp2126
a(I1285
I49
tp2127
a(I49
I1338
tp2128
a(I1338
I1337
tp2129
aa(lp2130
(I1403
I1402
tp2131
a(I1402
I1405
tp2132
a(I1405
I1400
tp2133
a(I1400
I1401
tp2134
a(I1401
I1403
tp2135
aa(lp2136
(I878
I873
tp2137
a(I873
I863
tp2138
a(I863
I759
tp2139
a(I759
I757
tp2140
a(I757
I878
tp2141
aa(lp2142
(I652
I655
tp2143
a(I655
I651
tp2144
a(I651
I831
tp2145
a(I831
I820
tp2146
a(I820
I652
tp2147
aa(lp2148
(I205
I206
tp2149
a(I206
I563
tp2150
a(I563
I562
tp2151
a(I562
I215
tp2152
a(I215
I205
tp2153
aa(lp2154
(I657
I665
tp2155
a(I665
I944
tp2156
a(I944
I679
tp2157
a(I679
I670
tp2158
a(I670
I657
tp2159
aa(lp2160
(I1299
I1327
tp2161
a(I1327
I1392
tp2162
a(I1392
I1393
tp2163
a(I1393
I1301
tp2164
a(I1301
I1299
tp2165
aa(lp2166
(I849
I856
tp2167
a(I856
I861
tp2168
a(I861
I860
tp2169
a(I860
I851
tp2170
a(I851
I849
tp2171
aa(lp2172
(I1553
I1567
tp2173
a(I1567
I1568
tp2174
a(I1568
I1569
tp2175
a(I1569
I1551
tp2176
a(I1551
I1553
tp2177
aa(lp2178
(I1160
I1144
tp2179
a(I1144
I1139
tp2180
a(I1139
I1157
tp2181
a(I1157
I1161
tp2182
a(I1161
I1160
tp2183
aa(lp2184
(I1407
I1410
tp2185
a(I1410
I1412
tp2186
a(I1412
I1307
tp2187
a(I1307
I1306
tp2188
a(I1306
I1407
tp2189
aa(lp2190
(I1405
I1406
tp2191
a(I1406
I1398
tp2192
a(I1398
I1396
tp2193
a(I1396
I1400
tp2194
a(I1400
I1405
tp2195
aa(lp2196
(I1236
I1235
tp2197
a(I1235
I1202
tp2198
a(I1202
I1198
tp2199
a(I1198
I1229
tp2200
a(I1229
I1236
tp2201
aa(lp2202
(I816
I830
tp2203
a(I830
I833
tp2204
a(I833
I834
tp2205
a(I834
I818
tp2206
a(I818
I816
tp2207
aa(lp2208
(I1154
I1140
tp2209
a(I1140
I1143
tp2210
a(I1143
I1159
tp2211
a(I1159
I1155
tp2212
a(I1155
I1154
tp2213
aa(lp2214
(I138
I92
tp2215
a(I92
I93
tp2216
a(I93
I178
tp2217
a(I178
I139
tp2218
a(I139
I138
tp2219
aa(lp2220
(I1062
I1061
tp2221
a(I1061
I1046
tp2222
a(I1046
I1045
tp2223
a(I1045
I1049
tp2224
a(I1049
I1062
tp2225
aa(lp2226
(I145
I143
tp2227
a(I143
I1280
tp2228
a(I1280
I1281
tp2229
a(I1281
I146
tp2230
a(I146
I145
tp2231
aa(lp2232
(I29
I30
tp2233
a(I30
I9
tp2234
a(I9
I8
tp2235
a(I8
I22
tp2236
a(I22
I29
tp2237
aa(lp2238
(I349
I536
tp2239
a(I536
I537
tp2240
a(I537
I514
tp2241
a(I514
I350
tp2242
a(I350
I349
tp2243
aa(lp2244
(I850
I845
tp2245
a(I845
I846
tp2246
a(I846
I859
tp2247
a(I859
I854
tp2248
a(I854
I850
tp2249
aa(lp2250
(I884
I941
tp2251
a(I941
I943
tp2252
a(I943
I914
tp2253
a(I914
I885
tp2254
a(I885
I884
tp2255
aa(lp2256
(I1256
I142
tp2257
a(I142
I135
tp2258
a(I135
I137
tp2259
a(I137
I1255
tp2260
a(I1255
I1256
tp2261
aa(lp2262
(I286
I282
tp2263
a(I282
I281
tp2264
a(I281
I276
tp2265
a(I276
I278
tp2266
a(I278
I286
tp2267
aa(lp2268
(I627
I634
tp2269
a(I634
I637
tp2270
a(I637
I642
tp2271
a(I642
I628
tp2272
a(I628
I627
tp2273
aa(lp2274
(I210
I644
tp2275
a(I644
I643
tp2276
a(I643
I570
tp2277
a(I570
I208
tp2278
a(I208
I210
tp2279
aa(lp2280
(I824
I826
tp2281
a(I826
I814
tp2282
a(I814
I813
tp2283
a(I813
I823
tp2284
a(I823
I824
tp2285
aa(lp2286
(I1449
I1487
tp2287
a(I1487
I1489
tp2288
a(I1489
I1459
tp2289
a(I1459
I1454
tp2290
a(I1454
I1449
tp2291
aa(lp2292
(I1521
I1517
tp2293
a(I1517
I1518
tp2294
a(I1518
I1533
tp2295
a(I1533
I1522
tp2296
a(I1522
I1521
tp2297
aa(lp2298
(I272
I230
tp2299
a(I230
I231
tp2300
a(I231
I260
tp2301
a(I260
I259
tp2302
a(I259
I272
tp2303
aa(lp2304
(I1246
I1247
tp2305
a(I1247
I51
tp2306
a(I51
I53
tp2307
a(I53
I56
tp2308
a(I56
I55
tp2309
a(I55
I1246
tp2310
aa(lp2311
(I299
I298
tp2312
a(I298
I334
tp2313
a(I334
I342
tp2314
a(I342
I343
tp2315
a(I343
I340
tp2316
a(I340
I299
tp2317
aa(lp2318
(I134
I133
tp2319
a(I133
I1251
tp2320
a(I1251
I1249
tp2321
a(I1249
I65
tp2322
a(I65
I127
tp2323
a(I127
I134
tp2324
aa(lp2325
(I163
I159
tp2326
a(I159
I157
tp2327
a(I157
I153
tp2328
a(I153
I154
tp2329
a(I154
I162
tp2330
a(I162
I163
tp2331
aa(lp2332
(I882
I883
tp2333
a(I883
I857
tp2334
a(I857
I847
tp2335
a(I847
I838
tp2336
a(I838
I839
tp2337
a(I839
I882
tp2338
aa(lp2339
(I110
I59
tp2340
a(I59
I1059
tp2341
a(I1059
I1058
tp2342
a(I1058
I106
tp2343
a(I106
I109
tp2344
a(I109
I110
tp2345
aa(lp2346
(I1068
I1070
tp2347
a(I1070
I1174
tp2348
a(I1174
I1169
tp2349
a(I1169
I1173
tp2350
a(I1173
I1176
tp2351
a(I1176
I1068
tp2352
aa(lp2353
(I1558
I1579
tp2354
a(I1579
I1578
tp2355
a(I1578
I1577
tp2356
a(I1577
I1576
tp2357
a(I1576
I1555
tp2358
a(I1555
I1558
tp2359
aa(lp2360
(I311
I578
tp2361
a(I578
I585
tp2362
a(I585
I588
tp2363
a(I588
I555
tp2364
a(I555
I310
tp2365
a(I310
I311
tp2366
aa(lp2367
(I226
I227
tp2368
a(I227
I26
tp2369
a(I26
I21
tp2370
a(I21
I20
tp2371
a(I20
I223
tp2372
a(I223
I226
tp2373
aa(lp2374
(I659
I662
tp2375
a(I662
I446
tp2376
a(I446
I557
tp2377
a(I557
I663
tp2378
a(I663
I660
tp2379
a(I660
I659
tp2380
aa(lp2381
(I1586
I11
tp2382
a(I11
I15
tp2383
a(I15
I16
tp2384
a(I16
I1589
tp2385
a(I1589
I1587
tp2386
a(I1587
I1586
tp2387
aa(lp2388
(I985
I1048
tp2389
a(I1048
I1047
tp2390
a(I1047
I1045
tp2391
a(I1045
I1046
tp2392
a(I1046
I978
tp2393
a(I978
I985
tp2394
aa(lp2395
(I595
I582
tp2396
a(I582
I579
tp2397
a(I579
I590
tp2398
a(I590
I593
tp2399
a(I593
I594
tp2400
a(I594
I595
tp2401
aa(lp2402
(I806
I807
tp2403
a(I807
I811
tp2404
a(I811
I810
tp2405
a(I810
I812
tp2406
a(I812
I809
tp2407
a(I809
I806
tp2408
aa(lp2409
(I590
I579
tp2410
a(I579
I578
tp2411
a(I578
I311
tp2412
a(I311
I312
tp2413
a(I312
I589
tp2414
a(I589
I590
tp2415
aa(lp2416
(I10
I1588
tp2417
a(I1588
I1592
tp2418
a(I1592
I7
tp2419
a(I7
I8
tp2420
a(I8
I9
tp2421
a(I9
I10
tp2422
aa(lp2423
(I1586
I1587
tp2424
a(I1587
I1580
tp2425
a(I1580
I1560
tp2426
a(I1560
I1559
tp2427
a(I1559
I1584
tp2428
a(I1584
I1586
tp2429
aa(lp2430
(I789
I779
tp2431
a(I779
I778
tp2432
a(I778
I803
tp2433
a(I803
I804
tp2434
a(I804
I796
tp2435
a(I796
I789
tp2436
aa(lp2437
(I1370
I1324
tp2438
a(I1324
I1325
tp2439
a(I1325
I1384
tp2440
a(I1384
I1385
tp2441
a(I1385
I1371
tp2442
a(I1371
I1370
tp2443
aa(lp2444
(I1176
I1173
tp2445
a(I1173
I1124
tp2446
a(I1124
I1125
tp2447
a(I1125
I1071
tp2448
a(I1071
I1072
tp2449
a(I1072
I1176
tp2450
aa(lp2451
(I765
I766
tp2452
a(I766
I710
tp2453
a(I710
I707
tp2454
a(I707
I843
tp2455
a(I843
I848
tp2456
a(I848
I765
tp2457
aa(lp2458
(I590
I589
tp2459
a(I589
I592
tp2460
a(I592
I581
tp2461
a(I581
I583
tp2462
a(I583
I593
tp2463
a(I593
I590
tp2464
aa(lp2465
(I625
I440
tp2466
a(I440
I439
tp2467
a(I439
I560
tp2468
a(I560
I621
tp2469
a(I621
I623
tp2470
a(I623
I625
tp2471
aa(lp2472
(I638
I639
tp2473
a(I639
I471
tp2474
a(I471
I470
tp2475
a(I470
I631
tp2476
a(I631
I632
tp2477
a(I632
I638
tp2478
aa(lp2479
(I104
I105
tp2480
a(I105
I1057
tp2481
a(I1057
I1056
tp2482
a(I1056
I83
tp2483
a(I83
I100
tp2484
a(I100
I104
tp2485
aa(lp2486
(I1532
I1540
tp2487
a(I1540
I1479
tp2488
a(I1479
I1455
tp2489
a(I1455
I1446
tp2490
a(I1446
I1473
tp2491
a(I1473
I1532
tp2492
aa(lp2493
(I549
I523
tp2494
a(I523
I525
tp2495
a(I525
I519
tp2496
a(I519
I518
tp2497
a(I518
I548
tp2498
a(I548
I549
tp2499
aa(lp2500
(I829
I832
tp2501
a(I832
I830
tp2502
a(I830
I816
tp2503
a(I816
I814
tp2504
a(I814
I826
tp2505
a(I826
I829
tp2506
aa(lp2507
(I971
I1004
tp2508
a(I1004
I1012
tp2509
a(I1012
I1009
tp2510
a(I1009
I1010
tp2511
a(I1010
I976
tp2512
a(I976
I971
tp2513
aa(lp2514
(I143
I144
tp2515
a(I144
I1258
tp2516
a(I1258
I1253
tp2517
a(I1253
I1279
tp2518
a(I1279
I1280
tp2519
a(I1280
I143
tp2520
aa(lp2521
(I1096
I1093
tp2522
a(I1093
I1092
tp2523
a(I1092
I1135
tp2524
a(I1135
I1147
tp2525
a(I1147
I1146
tp2526
a(I1146
I1096
tp2527
aa(lp2528
(I375
I390
tp2529
a(I390
I397
tp2530
a(I397
I403
tp2531
a(I403
I404
tp2532
a(I404
I377
tp2533
a(I377
I375
tp2534
aa(lp2535
(I183
I140
tp2536
a(I140
I139
tp2537
a(I139
I178
tp2538
a(I178
I179
tp2539
a(I179
I182
tp2540
a(I182
I183
tp2541
aa(lp2542
(I1399
I1305
tp2543
a(I1305
I1309
tp2544
a(I1309
I1404
tp2545
a(I1404
I1402
tp2546
a(I1402
I1403
tp2547
a(I1403
I1399
tp2548
aa(lp2549
(I998
I1001
tp2550
a(I1001
I972
tp2551
a(I972
I973
tp2552
a(I973
I989
tp2553
a(I989
I990
tp2554
a(I990
I998
tp2555
aa(lp2556
(I669
I748
tp2557
a(I748
I741
tp2558
a(I741
I744
tp2559
a(I744
I513
tp2560
a(I513
I502
tp2561
a(I502
I669
tp2562
aa(lp2563
(I1352
I1386
tp2564
a(I1386
I1375
tp2565
a(I1375
I1363
tp2566
a(I1363
I1197
tp2567
a(I1197
I1186
tp2568
a(I1186
I1352
tp2569
aa(lp2570
(I276
I281
tp2571
a(I281
I265
tp2572
a(I265
I266
tp2573
a(I266
I279
tp2574
a(I279
I274
tp2575
a(I274
I276
tp2576
aa(lp2577
(I1120
I1121
tp2578
a(I1121
I1116
tp2579
a(I1116
I1115
tp2580
a(I1115
I1102
tp2581
a(I1102
I1103
tp2582
a(I1103
I1120
tp2583
aa(lp2584
(I1395
I1396
tp2585
a(I1396
I1398
tp2586
a(I1398
I1303
tp2587
a(I1303
I1302
tp2588
a(I1302
I1394
tp2589
a(I1394
I1395
tp2590
aa(lp2591
(I180
I191
tp2592
a(I191
I169
tp2593
a(I169
I1419
tp2594
a(I1419
I1408
tp2595
a(I1408
I136
tp2596
a(I136
I180
tp2597
aa(lp2598
(I102
I125
tp2599
a(I125
I114
tp2600
a(I114
I36
tp2601
a(I36
I47
tp2602
a(I47
I91
tp2603
a(I91
I102
tp2604
aa(lp2605
(I1477
I1445
tp2606
a(I1445
I1440
tp2607
a(I1440
I1442
tp2608
a(I1442
I1429
tp2609
a(I1429
I1427
tp2610
a(I1427
I1477
tp2611
aa(lp2612
(I299
I340
tp2613
a(I340
I341
tp2614
a(I341
I333
tp2615
a(I333
I238
tp2616
a(I238
I235
tp2617
a(I235
I299
tp2618
aa(lp2619
(I805
I804
tp2620
a(I804
I803
tp2621
a(I803
I793
tp2622
a(I793
I792
tp2623
a(I792
I799
tp2624
a(I799
I805
tp2625
aa(lp2626
(I762
I761
tp2627
a(I761
I894
tp2628
a(I894
I900
tp2629
a(I900
I899
tp2630
a(I899
I898
tp2631
a(I898
I762
tp2632
aa(lp2633
(I840
I839
tp2634
a(I839
I838
tp2635
a(I838
I706
tp2636
a(I706
I705
tp2637
a(I705
I837
tp2638
a(I837
I840
tp2639
aa(lp2640
(I1021
I1020
tp2641
a(I1020
I1275
tp2642
a(I1275
I1252
tp2643
a(I1252
I977
tp2644
a(I977
I1016
tp2645
a(I1016
I1021
tp2646
aa(lp2647
(I1070
I1069
tp2648
a(I1069
I1180
tp2649
a(I1180
I1178
tp2650
a(I1178
I1177
tp2651
a(I1177
I1174
tp2652
a(I1174
I1070
tp2653
aa(lp2654
(I268
I267
tp2655
a(I267
I261
tp2656
a(I261
I263
tp2657
a(I263
I271
tp2658
a(I271
I270
tp2659
a(I270
I268
tp2660
aa(lp2661
(I1309
I1310
tp2662
a(I1310
I1414
tp2663
a(I1414
I1413
tp2664
a(I1413
I1409
tp2665
a(I1409
I1404
tp2666
a(I1404
I1309
tp2667
aa(lp2668
(I1239
I1242
tp2669
a(I1242
I1268
tp2670
a(I1268
I1269
tp2671
a(I1269
I961
tp2672
a(I961
I960
tp2673
a(I960
I1239
tp2674
aa(lp2675
(I915
I913
tp2676
a(I913
I591
tp2677
a(I591
I524
tp2678
a(I524
I535
tp2679
a(I535
I935
tp2680
a(I935
I915
tp2681
aa(lp2682
(I1500
I1499
tp2683
a(I1499
I1498
tp2684
a(I1498
I1461
tp2685
a(I1461
I1460
tp2686
a(I1460
I1493
tp2687
a(I1493
I1500
tp2688
aa(lp2689
(I597
I598
tp2690
a(I598
I586
tp2691
a(I586
I572
tp2692
a(I572
I574
tp2693
a(I574
I604
tp2694
a(I604
I597
tp2695
aa(lp2696
(I1369
I1368
tp2697
a(I1368
I1367
tp2698
a(I1367
I1347
tp2699
a(I1347
I1346
tp2700
a(I1346
I1364
tp2701
a(I1364
I1369
tp2702
aa(lp2703
(I431
I426
tp2704
a(I426
I410
tp2705
a(I410
I414
tp2706
a(I414
I445
tp2707
a(I445
I444
tp2708
a(I444
I431
tp2709
aa(lp2710
(I702
I825
tp2711
a(I825
I822
tp2712
a(I822
I811
tp2713
a(I811
I807
tp2714
a(I807
I701
tp2715
a(I701
I702
tp2716
aa(lp2717
(I597
I604
tp2718
a(I604
I608
tp2719
a(I608
I612
tp2720
a(I612
I611
tp2721
a(I611
I599
tp2722
a(I599
I597
tp2723
aa(lp2724
(I1276
I1277
tp2725
a(I1277
I1337
tp2726
a(I1337
I1315
tp2727
a(I1315
I1314
tp2728
a(I1314
I1294
tp2729
a(I1294
I1276
tp2730
aa(lp2731
(I896
I888
tp2732
a(I888
I889
tp2733
a(I889
I910
tp2734
a(I910
I909
tp2735
a(I909
I895
tp2736
a(I895
I896
tp2737
aa(lp2738
(I1469
I1515
tp2739
a(I1515
I1514
tp2740
a(I1514
I1510
tp2741
a(I1510
I1509
tp2742
a(I1509
I1467
tp2743
a(I1467
I1469
tp2744
aa(lp2745
(I220
I219
tp2746
a(I219
I218
tp2747
a(I218
I217
tp2748
a(I217
I211
tp2749
a(I211
I214
tp2750
a(I214
I220
tp2751
aa(lp2752
(I181
I179
tp2753
a(I179
I178
tp2754
a(I178
I93
tp2755
a(I93
I84
tp2756
a(I84
I85
tp2757
a(I85
I181
tp2758
aa(lp2759
(I273
I272
tp2760
a(I272
I259
tp2761
a(I259
I257
tp2762
a(I257
I268
tp2763
a(I268
I270
tp2764
a(I270
I273
tp2765
aa(lp2766
(I479
I478
tp2767
a(I478
I477
tp2768
a(I477
I476
tp2769
a(I476
I473
tp2770
a(I473
I474
tp2771
a(I474
I479
tp2772
aa(lp2773
(I99
I122
tp2774
a(I122
I123
tp2775
a(I123
I124
tp2776
a(I124
I104
tp2777
a(I104
I100
tp2778
a(I100
I99
tp2779
aa(lp2780
(I262
I233
tp2781
a(I233
I232
tp2782
a(I232
I273
tp2783
a(I273
I270
tp2784
a(I270
I271
tp2785
a(I271
I262
tp2786
aa(lp2787
(I764
I753
tp2788
a(I753
I1485
tp2789
a(I1485
I1374
tp2790
a(I1374
I675
tp2791
a(I675
I775
tp2792
a(I775
I764
tp2793
aa(lp2794
(I1582
I1581
tp2795
a(I1581
I1593
tp2796
a(I1593
I4
tp2797
a(I4
I1595
tp2798
a(I1595
I1594
tp2799
a(I1594
I1582
tp2800
aa(lp2801
(I1444
I1445
tp2802
a(I1445
I1477
tp2803
a(I1477
I1475
tp2804
a(I1475
I1476
tp2805
a(I1476
I1456
tp2806
a(I1456
I1444
tp2807
aa(lp2808
(I449
I452
tp2809
a(I452
I453
tp2810
a(I453
I454
tp2811
a(I454
I416
tp2812
a(I416
I412
tp2813
a(I412
I449
tp2814
aa(lp2815
(I499
I500
tp2816
a(I500
I400
tp2817
a(I400
I399
tp2818
a(I399
I504
tp2819
a(I504
I507
tp2820
a(I507
I499
tp2821
aa(lp2822
(I417
I452
tp2823
a(I452
I449
tp2824
a(I449
I450
tp2825
a(I450
I451
tp2826
a(I451
I415
tp2827
a(I415
I417
tp2828
aa(lp2829
(I1158
I1157
tp2830
a(I1157
I1139
tp2831
a(I1139
I1140
tp2832
a(I1140
I1154
tp2833
a(I1154
I1156
tp2834
a(I1156
I1158
tp2835
aa(lp2836
(I975
I964
tp2837
a(I964
I1053
tp2838
a(I1053
I1086
tp2839
a(I1086
I1064
tp2840
a(I1064
I1075
tp2841
a(I1075
I975
tp2842
aa(lp2843
(I447
I369
tp2844
a(I369
I358
tp2845
a(I358
I946
tp2846
a(I946
I948
tp2847
a(I948
I947
tp2848
a(I947
I447
tp2849
aa(lp2850
(I1485
I1
tp2851
a(I1
I0
tp2852
a(I0
I930
tp2853
a(I930
I1263
tp2854
a(I1263
I1374
tp2855
a(I1374
I1485
tp2856
aa(lp2857
(I422
I425
tp2858
a(I425
I427
tp2859
a(I427
I428
tp2860
a(I428
I430
tp2861
a(I430
I429
tp2862
a(I429
I422
tp2863
aa(lp2864
(I1026
I1022
tp2865
a(I1022
I1018
tp2866
a(I1018
I1011
tp2867
a(I1011
I1297
tp2868
a(I1297
I1308
tp2869
a(I1308
I1026
tp2870
aa(lp2871
(I1288
I963
tp2872
a(I963
I962
tp2873
a(I962
I1272
tp2874
a(I1272
I1274
tp2875
a(I1274
I1287
tp2876
a(I1287
I1288
tp2877
aa(lp2878
(I505
I506
tp2879
a(I506
I393
tp2880
a(I393
I385
tp2881
a(I385
I386
tp2882
a(I386
I508
tp2883
a(I508
I505
tp2884
aa(lp2885
(I654
I652
tp2886
a(I652
I820
tp2887
a(I820
I764
tp2888
a(I764
I775
tp2889
a(I775
I653
tp2890
a(I653
I654
tp2891
aa(lp2892
(I952
I1132
tp2893
a(I1132
I1191
tp2894
a(I1191
I1192
tp2895
a(I1192
I1195
tp2896
a(I1195
I957
tp2897
a(I957
I952
tp2898
aa(lp2899
(I1047
I1048
tp2900
a(I1048
I648
tp2901
a(I648
I645
tp2902
a(I645
I86
tp2903
a(I86
I1060
tp2904
a(I1060
I1047
tp2905
aa(lp2906
(I494
I493
tp2907
a(I493
I488
tp2908
a(I488
I489
tp2909
a(I489
I466
tp2910
a(I466
I467
tp2911
a(I467
I494
tp2912
aa(lp2913
(I635
I646
tp2914
a(I646
I665
tp2915
a(I665
I657
tp2916
a(I657
I569
tp2917
a(I569
I558
tp2918
a(I558
I635
tp2919
aa(lp2920
(I674
I676
tp2921
a(I676
I715
tp2922
a(I715
I714
tp2923
a(I714
I737
tp2924
a(I737
I738
tp2925
a(I738
I674
tp2926
aa(lp2927
(I1211
I1218
tp2928
a(I1218
I1217
tp2929
a(I1217
I1216
tp2930
a(I1216
I1182
tp2931
a(I1182
I1181
tp2932
a(I1181
I1211
tp2933
aa(lp2934
(I303
I553
tp2935
a(I553
I554
tp2936
a(I554
I330
tp2937
a(I330
I332
tp2938
a(I332
I304
tp2939
a(I304
I303
tp2940
aa(lp2941
(I1539
I1531
tp2942
a(I1531
I1529
tp2943
a(I1529
I1537
tp2944
a(I1537
I1542
tp2945
a(I1542
I1538
tp2946
a(I1538
I1539
tp2947
aa(lp2948
(I1429
I1442
tp2949
a(I1442
I1435
tp2950
a(I1435
I1436
tp2951
a(I1436
I1543
tp2952
a(I1543
I1431
tp2953
a(I1431
I1429
tp2954
aa(lp2955
(I460
I459
tp2956
a(I459
I454
tp2957
a(I454
I453
tp2958
a(I453
I455
tp2959
a(I455
I457
tp2960
a(I457
I460
tp2961
aa(lp2962
(I1288
I1287
tp2963
a(I1287
I1292
tp2964
a(I1292
I1298
tp2965
a(I1298
I1296
tp2966
a(I1296
I1295
tp2967
a(I1295
I1289
tp2968
a(I1289
I1288
tp2969
aa(lp2970
(I877
I872
tp2971
a(I872
I874
tp2972
a(I874
I878
tp2973
a(I878
I757
tp2974
a(I757
I758
tp2975
a(I758
I876
tp2976
a(I876
I877
tp2977
aa(lp2978
(I435
I535
tp2979
a(I535
I524
tp2980
a(I524
I491
tp2981
a(I491
I502
tp2982
a(I502
I513
tp2983
a(I513
I380
tp2984
a(I380
I435
tp2985
aa(lp2986
(I1426
I1428
tp2987
a(I1428
I1427
tp2988
a(I1427
I1429
tp2989
a(I1429
I1431
tp2990
a(I1431
I933
tp2991
a(I933
I932
tp2992
a(I932
I1426
tp2993
aa(lp2994
(I603
I620
tp2995
a(I620
I614
tp2996
a(I614
I617
tp2997
a(I617
I621
tp2998
a(I621
I560
tp2999
a(I560
I556
tp3000
a(I556
I603
tp3001
aa(lp3002
(I445
I448
tp3003
a(I448
I450
tp3004
a(I450
I449
tp3005
a(I449
I412
tp3006
a(I412
I411
tp3007
a(I411
I444
tp3008
a(I444
I445
tp3009
aa(lp3010
(I894
I761
tp3011
a(I761
I760
tp3012
a(I760
I887
tp3013
a(I887
I890
tp3014
a(I890
I896
tp3015
a(I896
I895
tp3016
a(I895
I894
tp3017
aa(lp3018
(I480
I949
tp3019
a(I949
I947
tp3020
a(I947
I948
tp3021
a(I948
I950
tp3022
a(I950
I936
tp3023
a(I936
I458
tp3024
a(I458
I480
tp3025
aa(lp3026
(I807
I806
tp3027
a(I806
I800
tp3028
a(I800
I794
tp3029
a(I794
I795
tp3030
a(I795
I700
tp3031
a(I700
I701
tp3032
a(I701
I807
tp3033
aa(lp3034
(I315
I326
tp3035
a(I326
I349
tp3036
a(I349
I350
tp3037
a(I350
I348
tp3038
a(I348
I346
tp3039
a(I346
I345
tp3040
a(I345
I315
tp3041
aa(lp3042
(I1566
I1572
tp3043
a(I1572
I1571
tp3044
a(I1571
I1570
tp3045
a(I1570
I1569
tp3046
a(I1569
I1568
tp3047
a(I1568
I1564
tp3048
a(I1564
I1566
tp3049
aa(lp3050
(I364
I363
tp3051
a(I363
I353
tp3052
a(I353
I356
tp3053
a(I356
I365
tp3054
a(I365
I337
tp3055
a(I337
I338
tp3056
a(I338
I364
tp3057
aa(lp3058
(I1480
I1481
tp3059
a(I1481
I1482
tp3060
a(I1482
I1448
tp3061
a(I1448
I1447
tp3062
a(I1447
I1478
tp3063
a(I1478
I1483
tp3064
a(I1483
I1480
tp3065
aa(lp3066
(I866
I868
tp3067
a(I868
I870
tp3068
a(I870
I869
tp3069
a(I869
I871
tp3070
a(I871
I756
tp3071
a(I756
I755
tp3072
a(I755
I866
tp3073
aa(lp3074
(I156
I157
tp3075
a(I157
I159
tp3076
a(I159
I160
tp3077
a(I160
I161
tp3078
a(I161
I152
tp3079
a(I152
I151
tp3080
a(I151
I156
tp3081
aa(lp3082
(I861
I865
tp3083
a(I865
I754
tp3084
a(I754
I759
tp3085
a(I759
I863
tp3086
a(I863
I862
tp3087
a(I862
I860
tp3088
a(I860
I861
tp3089
aa(lp3090
(I546
I558
tp3091
a(I558
I569
tp3092
a(I569
I491
tp3093
a(I491
I524
tp3094
a(I524
I591
tp3095
a(I591
I580
tp3096
a(I580
I546
tp3097
aa(lp3098
(I1586
I1584
tp3099
a(I1584
I1332
tp3100
a(I1332
I1335
tp3101
a(I1335
I13
tp3102
a(I13
I12
tp3103
a(I12
I11
tp3104
a(I11
I1586
tp3105
aa(lp3106
(I179
I181
tp3107
a(I181
I185
tp3108
a(I185
I1283
tp3109
a(I1283
I1284
tp3110
a(I1284
I184
tp3111
a(I184
I182
tp3112
a(I182
I179
tp3113
aa(lp3114
(I827
I828
tp3115
a(I828
I829
tp3116
a(I829
I826
tp3117
a(I826
I824
tp3118
a(I824
I815
tp3119
a(I815
I817
tp3120
a(I817
I827
tp3121
aa(lp3122
(I1098
I1099
tp3123
a(I1099
I1146
tp3124
a(I1146
I1147
tp3125
a(I1147
I1134
tp3126
a(I1134
I1137
tp3127
a(I1137
I1148
tp3128
a(I1148
I1098
tp3129
aa(lp3130
(I377
I404
tp3131
a(I404
I405
tp3132
a(I405
I395
tp3133
a(I395
I396
tp3134
a(I396
I241
tp3135
a(I241
I240
tp3136
a(I240
I377
tp3137
aa(lp3138
(I354
I355
tp3139
a(I355
I363
tp3140
a(I363
I364
tp3141
a(I364
I318
tp3142
a(I318
I320
tp3143
a(I320
I366
tp3144
a(I366
I354
tp3145
aa(lp3146
(I468
I489
tp3147
a(I489
I488
tp3148
a(I488
I487
tp3149
a(I487
I484
tp3150
a(I484
I475
tp3151
a(I475
I463
tp3152
a(I463
I468
tp3153
aa(lp3154
(I1297
I1011
tp3155
a(I1011
I1010
tp3156
a(I1010
I1009
tp3157
a(I1009
I1002
tp3158
a(I1002
I1006
tp3159
a(I1006
I1264
tp3160
a(I1264
I1297
tp3161
aa(lp3162
(I1486
I1497
tp3163
a(I1497
I1508
tp3164
a(I1508
I1474
tp3165
a(I1474
I931
tp3166
a(I931
I908
tp3167
a(I908
I1441
tp3168
a(I1441
I1486
tp3169
aa(lp3170
(I645
I647
tp3171
a(I647
I187
tp3172
a(I187
I185
tp3173
a(I185
I181
tp3174
a(I181
I85
tp3175
a(I85
I86
tp3176
a(I86
I645
tp3177
aa(lp3178
(I910
I889
tp3179
a(I889
I892
tp3180
a(I892
I911
tp3181
a(I911
I313
tp3182
a(I313
I280
tp3183
a(I280
I907
tp3184
a(I907
I910
tp3185
aa(lp3186
(I486
I430
tp3187
a(I430
I428
tp3188
a(I428
I462
tp3189
a(I462
I476
tp3190
a(I476
I477
tp3191
a(I477
I482
tp3192
a(I482
I486
tp3193
aa(lp3194
(I189
I649
tp3195
a(I649
I648
tp3196
a(I648
I1048
tp3197
a(I1048
I985
tp3198
a(I985
I987
tp3199
a(I987
I188
tp3200
a(I188
I189
tp3201
aa(lp3202
(I1036
I1034
tp3203
a(I1034
I1035
tp3204
a(I1035
I1023
tp3205
a(I1023
I1022
tp3206
a(I1022
I1026
tp3207
a(I1026
I1027
tp3208
a(I1027
I1036
tp3209
aa(lp3210
(I1349
I1348
tp3211
a(I1348
I1318
tp3212
a(I1318
I1320
tp3213
a(I1320
I1378
tp3214
a(I1378
I1379
tp3215
a(I1379
I1380
tp3216
a(I1380
I1349
tp3217
aa(lp3218
(I1324
I1370
tp3219
a(I1370
I1367
tp3220
a(I1367
I1368
tp3221
a(I1368
I1382
tp3222
a(I1382
I1383
tp3223
a(I1383
I1323
tp3224
a(I1323
I1324
tp3225
aa(lp3226
(I1417
I1418
tp3227
a(I1418
I1311
tp3228
a(I1311
I1312
tp3229
a(I1312
I1366
tp3230
a(I1366
I1365
tp3231
a(I1365
I1415
tp3232
a(I1415
I1417
tp3233
aa(lp3234
(I19
I20
tp3235
a(I20
I21
tp3236
a(I21
I7
tp3237
a(I7
I1592
tp3238
a(I1592
I1590
tp3239
a(I1590
I18
tp3240
a(I18
I19
tp3241
aa(lp3242
(I1362
I1329
tp3243
a(I1329
I1332
tp3244
a(I1332
I1584
tp3245
a(I1584
I1559
tp3246
a(I1559
I1547
tp3247
a(I1547
I1361
tp3248
a(I1361
I1362
tp3249
aa(lp3250
(I101
I118
tp3251
a(I118
I119
tp3252
a(I119
I116
tp3253
a(I116
I115
tp3254
a(I115
I117
tp3255
a(I117
I97
tp3256
a(I97
I101
tp3257
aa(lp3258
(I655
I652
tp3259
a(I652
I654
tp3260
a(I654
I1041
tp3261
a(I1041
I819
tp3262
a(I819
I708
tp3263
a(I708
I200
tp3264
a(I200
I655
tp3265
aa(lp3266
(I633
I626
tp3267
a(I626
I630
tp3268
a(I630
I640
tp3269
a(I640
I641
tp3270
a(I641
I638
tp3271
a(I638
I632
tp3272
a(I632
I633
tp3273
aa(lp3274
(I221
I218
tp3275
a(I218
I219
tp3276
a(I219
I245
tp3277
a(I245
I244
tp3278
a(I244
I242
tp3279
a(I242
I243
tp3280
a(I243
I221
tp3281
aa(lp3282
(I1387
I1389
tp3283
a(I1389
I1390
tp3284
a(I1390
I1372
tp3285
a(I1372
I1373
tp3286
a(I1373
I1385
tp3287
a(I1385
I1384
tp3288
a(I1384
I1387
tp3289
aa(lp3290
(I1487
I1449
tp3291
a(I1449
I1450
tp3292
a(I1450
I1480
tp3293
a(I1480
I1483
tp3294
a(I1483
I1488
tp3295
a(I1488
I1484
tp3296
a(I1484
I1487
tp3297
aa(lp3298
(I1203
I1232
tp3299
a(I1232
I1231
tp3300
a(I1231
I1222
tp3301
a(I1222
I1224
tp3302
a(I1224
I1233
tp3303
a(I1233
I1199
tp3304
a(I1199
I1203
tp3305
aa(lp3306
(I324
I913
tp3307
a(I913
I915
tp3308
a(I915
I916
tp3309
a(I916
I1552
tp3310
a(I1552
I1563
tp3311
a(I1563
I336
tp3312
a(I336
I324
tp3313
aa(lp3314
(I1397
I36
tp3315
a(I36
I114
tp3316
a(I114
I147
tp3317
a(I147
I158
tp3318
a(I158
I136
tp3319
a(I136
I1408
tp3320
a(I1408
I1397
tp3321
aa(lp3322
(I1111
I1156
tp3323
a(I1156
I1154
tp3324
a(I1154
I1155
tp3325
a(I1155
I1138
tp3326
a(I1138
I1133
tp3327
a(I1133
I1107
tp3328
a(I1107
I1111
tp3329
aa(lp3330
(I1439
I1432
tp3331
a(I1432
I1435
tp3332
a(I1435
I1442
tp3333
a(I1442
I1440
tp3334
a(I1440
I1437
tp3335
a(I1437
I1438
tp3336
a(I1438
I1439
tp3337
aa(lp3338
(I766
I765
tp3339
a(I765
I751
tp3340
a(I751
I749
tp3341
a(I749
I718
tp3342
a(I718
I694
tp3343
a(I694
I711
tp3344
a(I711
I766
tp3345
aa(lp3346
(I144
I143
tp3347
a(I143
I145
tp3348
a(I145
I149
tp3349
a(I149
I1259
tp3350
a(I1259
I1261
tp3351
a(I1261
I148
tp3352
a(I148
I144
tp3353
aa(lp3354
(I548
I547
tp3355
a(I547
I543
tp3356
a(I543
I545
tp3357
a(I545
I550
tp3358
a(I550
I551
tp3359
a(I551
I549
tp3360
a(I549
I548
tp3361
aa(lp3362
(I1109
I1110
tp3363
a(I1110
I1151
tp3364
a(I1151
I1150
tp3365
a(I1150
I1161
tp3366
a(I1161
I1157
tp3367
a(I1157
I1158
tp3368
a(I1158
I1109
tp3369
aa(lp3370
(I831
I808
tp3371
a(I808
I786
tp3372
a(I786
I797
tp3373
a(I797
I753
tp3374
a(I753
I764
tp3375
a(I764
I820
tp3376
a(I820
I831
tp3377
aa(lp3378
(I1427
I1428
tp3379
a(I1428
I1425
tp3380
a(I1425
I1424
tp3381
a(I1424
I1470
tp3382
a(I1470
I1475
tp3383
a(I1475
I1477
tp3384
a(I1477
I1427
tp3385
aa(lp3386
(I1394
I1393
tp3387
a(I1393
I1392
tp3388
a(I1392
I1382
tp3389
a(I1382
I1368
tp3390
a(I1368
I1369
tp3391
a(I1369
I1395
tp3392
a(I1395
I1394
tp3393
aa(lp3394
(I31
I23
tp3395
a(I23
I24
tp3396
a(I24
I37
tp3397
a(I37
I38
tp3398
a(I38
I34
tp3399
a(I34
I33
tp3400
a(I33
I31
tp3401
aa(lp3402
(I768
I767
tp3403
a(I767
I684
tp3404
a(I684
I689
tp3405
a(I689
I771
tp3406
a(I771
I769
tp3407
a(I769
I770
tp3408
a(I770
I768
tp3409
aa(lp3410
(I1032
I1044
tp3411
a(I1044
I1043
tp3412
a(I1043
I1040
tp3413
a(I1040
I1038
tp3414
a(I1038
I1036
tp3415
a(I1036
I1027
tp3416
a(I1027
I1032
tp3417
aa(lp3418
(I46
I45
tp3419
a(I45
I410
tp3420
a(I410
I426
tp3421
a(I426
I425
tp3422
a(I425
I422
tp3423
a(I422
I423
tp3424
a(I423
I46
tp3425
aa(lp3426
(I1355
I1365
tp3427
a(I1365
I1366
tp3428
a(I1366
I1300
tp3429
a(I1300
I1304
tp3430
a(I1304
I1364
tp3431
a(I1364
I1346
tp3432
a(I1346
I1355
tp3433
aa(lp3434
(I1416
I1421
tp3435
a(I1421
I929
tp3436
a(I929
I928
tp3437
a(I928
I1420
tp3438
a(I1420
I1417
tp3439
a(I1417
I1415
tp3440
a(I1415
I1416
tp3441
aa(lp3442
(I1224
I1222
tp3443
a(I1222
I1223
tp3444
a(I1223
I1206
tp3445
a(I1206
I1194
tp3446
a(I1194
I1193
tp3447
a(I1193
I1221
tp3448
a(I1221
I1224
tp3449
aa(lp3450
(I610
I609
tp3451
a(I609
I608
tp3452
a(I608
I604
tp3453
a(I604
I574
tp3454
a(I574
I573
tp3455
a(I573
I606
tp3456
a(I606
I610
tp3457
aa(lp3458
(I1197
I1208
tp3459
a(I1208
I897
tp3460
a(I897
I886
tp3461
a(I886
I1141
tp3462
a(I1141
I1175
tp3463
a(I1175
I1186
tp3464
a(I1186
I1197
tp3465
aa(lp3466
(I1231
I1232
tp3467
a(I1232
I1234
tp3468
a(I1234
I1200
tp3469
a(I1200
I1201
tp3470
a(I1201
I1226
tp3471
a(I1226
I1225
tp3472
a(I1225
I1231
tp3473
aa(lp3474
(I202
I213
tp3475
a(I213
I236
tp3476
a(I236
I1486
tp3477
a(I1486
I1441
tp3478
a(I1441
I1463
tp3479
a(I1463
I225
tp3480
a(I225
I202
tp3481
aa(lp3482
(I852
I851
tp3483
a(I851
I860
tp3484
a(I860
I862
tp3485
a(I862
I867
tp3486
a(I867
I868
tp3487
a(I868
I866
tp3488
a(I866
I852
tp3489
aa(lp3490
(I560
I439
tp3491
a(I439
I437
tp3492
a(I437
I306
tp3493
a(I306
I310
tp3494
a(I310
I555
tp3495
a(I555
I559
tp3496
a(I559
I556
tp3497
a(I556
I560
tp3498
aa(lp3499
(I862
I863
tp3500
a(I863
I873
tp3501
a(I873
I874
tp3502
a(I874
I872
tp3503
a(I872
I869
tp3504
a(I869
I870
tp3505
a(I870
I867
tp3506
a(I867
I862
tp3507
aa(lp3508
(I921
I917
tp3509
a(I917
I922
tp3510
a(I922
I1574
tp3511
a(I1574
I1552
tp3512
a(I1552
I916
tp3513
a(I916
I918
tp3514
a(I918
I920
tp3515
a(I920
I921
tp3516
aa(lp3517
(I566
I567
tp3518
a(I567
I564
tp3519
a(I564
I563
tp3520
a(I563
I206
tp3521
a(I206
I208
tp3522
a(I208
I570
tp3523
a(I570
I568
tp3524
a(I568
I566
tp3525
aa(lp3526
(I1547
I1544
tp3527
a(I1544
I1546
tp3528
a(I1546
I1545
tp3529
a(I1545
I1543
tp3530
a(I1543
I1436
tp3531
a(I1436
I1360
tp3532
a(I1360
I1361
tp3533
a(I1361
I1547
tp3534
aa(lp3535
(I57
I60
tp3536
a(I60
I106
tp3537
a(I106
I1058
tp3538
a(I1058
I1057
tp3539
a(I1057
I105
tp3540
a(I105
I107
tp3541
a(I107
I108
tp3542
a(I108
I57
tp3543
aa(lp3544
(I1495
I1535
tp3545
a(I1535
I1534
tp3546
a(I1534
I1536
tp3547
a(I1536
I1537
tp3548
a(I1537
I1529
tp3549
a(I1529
I1500
tp3550
a(I1500
I1493
tp3551
a(I1493
I1495
tp3552
aa(lp3553
(I1580
I1581
tp3554
a(I1581
I1582
tp3555
a(I1582
I1583
tp3556
a(I1583
I1577
tp3557
a(I1577
I1578
tp3558
a(I1578
I1556
tp3559
a(I1556
I1560
tp3560
a(I1560
I1580
tp3561
aa(lp3562
(I667
I666
tp3563
a(I666
I674
tp3564
a(I674
I738
tp3565
a(I738
I728
tp3566
a(I728
I732
tp3567
a(I732
I740
tp3568
a(I740
I739
tp3569
a(I739
I667
tp3570
aa(lp3571
(I1293
I1290
tp3572
a(I1290
I1291
tp3573
a(I1291
I1292
tp3574
a(I1292
I1287
tp3575
a(I1287
I1274
tp3576
a(I1274
I1276
tp3577
a(I1276
I1294
tp3578
a(I1294
I1293
tp3579
aa(lp3580
(I158
I347
tp3581
a(I347
I358
tp3582
a(I358
I369
tp3583
a(I369
I247
tp3584
a(I247
I258
tp3585
a(I258
I180
tp3586
a(I180
I136
tp3587
a(I136
I158
tp3588
aa(lp3589
(I533
I538
tp3590
a(I538
I537
tp3591
a(I537
I536
tp3592
a(I536
I534
tp3593
a(I534
I325
tp3594
a(I325
I323
tp3595
a(I323
I532
tp3596
a(I532
I533
tp3597
aa(lp3598
(I376
I383
tp3599
a(I383
I385
tp3600
a(I385
I393
tp3601
a(I393
I394
tp3602
a(I394
I392
tp3603
a(I392
I390
tp3604
a(I390
I375
tp3605
a(I375
I376
tp3606
aa(lp3607
(I1472
I1471
tp3608
a(I1471
I1512
tp3609
a(I1512
I1513
tp3610
a(I1513
I1516
tp3611
a(I1516
I1520
tp3612
a(I1520
I1518
tp3613
a(I1518
I1517
tp3614
a(I1517
I1472
tp3615
aa(lp3616
(I396
I398
tp3617
a(I398
I407
tp3618
a(I407
I408
tp3619
a(I408
I406
tp3620
a(I406
I42
tp3621
a(I42
I40
tp3622
a(I40
I241
tp3623
a(I241
I396
tp3624
aa(lp3625
(I1507
I1504
tp3626
a(I1504
I1462
tp3627
a(I1462
I1461
tp3628
a(I1461
I1498
tp3629
a(I1498
I1502
tp3630
a(I1502
I1505
tp3631
a(I1505
I1506
tp3632
a(I1506
I1507
tp3633
aa(lp3634
(I276
I274
tp3635
a(I274
I254
tp3636
a(I254
I246
tp3637
a(I246
I248
tp3638
a(I248
I275
tp3639
a(I275
I277
tp3640
a(I277
I278
tp3641
a(I278
I276
tp3642
aa(lp3643
(I252
I253
tp3644
a(I253
I226
tp3645
a(I226
I223
tp3646
a(I223
I222
tp3647
a(I222
I246
tp3648
a(I246
I254
tp3649
a(I254
I255
tp3650
a(I255
I252
tp3651
aa(lp3652
(I256
I257
tp3653
a(I257
I259
tp3654
a(I259
I260
tp3655
a(I260
I228
tp3656
a(I228
I227
tp3657
a(I227
I226
tp3658
a(I226
I253
tp3659
a(I253
I256
tp3660
aa(lp3661
(I1406
I1405
tp3662
a(I1405
I1402
tp3663
a(I1402
I1404
tp3664
a(I1404
I1409
tp3665
a(I1409
I1411
tp3666
a(I1411
I1410
tp3667
a(I1410
I1407
tp3668
a(I1407
I1406
tp3669
aa(lp3670
(I1076
I1088
tp3671
a(I1088
I1090
tp3672
a(I1090
I1091
tp3673
a(I1091
I1092
tp3674
a(I1092
I1093
tp3675
a(I1093
I1089
tp3676
a(I1089
I1077
tp3677
a(I1077
I1076
tp3678
aa(lp3679
(I177
I172
tp3680
a(I172
I173
tp3681
a(I173
I176
tp3682
a(I176
I175
tp3683
a(I175
I96
tp3684
a(I96
I89
tp3685
a(I89
I90
tp3686
a(I90
I177
tp3687
aa(lp3688
(I222
I223
tp3689
a(I223
I20
tp3690
a(I20
I19
tp3691
a(I19
I216
tp3692
a(I216
I217
tp3693
a(I217
I218
tp3694
a(I218
I221
tp3695
a(I221
I222
tp3696
aa(lp3697
(I1590
I1591
tp3698
a(I1591
I16
tp3699
a(I16
I15
tp3700
a(I15
I1336
tp3701
a(I1336
I1345
tp3702
a(I1345
I17
tp3703
a(I17
I18
tp3704
a(I18
I1590
tp3705
aa(lp3706
(I249
I251
tp3707
a(I251
I287
tp3708
a(I287
I242
tp3709
a(I242
I244
tp3710
a(I244
I289
tp3711
a(I289
I288
tp3712
a(I288
I283
tp3713
a(I283
I249
tp3714
aa(lp3715
(I1191
I1131
tp3716
a(I1131
I1127
tp3717
a(I1127
I1126
tp3718
a(I1126
I1184
tp3719
a(I1184
I1193
tp3720
a(I1193
I1194
tp3721
a(I1194
I1192
tp3722
a(I1192
I1191
tp3723
aa(lp3724
(I726
I745
tp3725
a(I745
I739
tp3726
a(I739
I740
tp3727
a(I740
I730
tp3728
a(I730
I733
tp3729
a(I733
I763
tp3730
a(I763
I722
tp3731
a(I722
I726
tp3732
aa(lp3733
(I1319
I1286
tp3734
a(I1286
I1024
tp3735
a(I1024
I1037
tp3736
a(I1037
I1034
tp3737
a(I1034
I1036
tp3738
a(I1036
I1038
tp3739
a(I1038
I1039
tp3740
a(I1039
I1319
tp3741
aa(lp3742
(I654
I653
tp3743
a(I653
I656
tp3744
a(I656
I686
tp3745
a(I686
I709
tp3746
a(I709
I2
tp3747
a(I2
I1152
tp3748
a(I1152
I1041
tp3749
a(I1041
I654
tp3750
aa(lp3751
(I83
I1056
tp3752
a(I1056
I1060
tp3753
a(I1060
I86
tp3754
a(I86
I85
tp3755
a(I85
I84
tp3756
a(I84
I81
tp3757
a(I81
I82
tp3758
a(I82
I83
tp3759
aa(lp3760
(I285
I288
tp3761
a(I288
I289
tp3762
a(I289
I293
tp3763
a(I293
I294
tp3764
a(I294
I290
tp3765
a(I290
I292
tp3766
a(I292
I284
tp3767
a(I284
I285
tp3768
aa(lp3769
(I1272
I962
tp3770
a(I962
I961
tp3771
a(I961
I1269
tp3772
a(I1269
I1270
tp3773
a(I1270
I1271
tp3774
a(I1271
I1240
tp3775
a(I1240
I1243
tp3776
a(I1243
I1272
tp3777
aa(lp3778
(I81
I84
tp3779
a(I84
I93
tp3780
a(I93
I92
tp3781
a(I92
I88
tp3782
a(I88
I90
tp3783
a(I90
I89
tp3784
a(I89
I87
tp3785
a(I87
I81
tp3786
aa(lp3787
(I780
I699
tp3788
a(I699
I703
tp3789
a(I703
I795
tp3790
a(I795
I794
tp3791
a(I794
I792
tp3792
a(I792
I793
tp3793
a(I793
I777
tp3794
a(I777
I780
tp3795
aa(lp3796
(I1020
I1014
tp3797
a(I1014
I1018
tp3798
a(I1018
I1022
tp3799
a(I1022
I1023
tp3800
a(I1023
I1024
tp3801
a(I1024
I1286
tp3802
a(I1286
I1275
tp3803
a(I1275
I1020
tp3804
aa(lp3805
(I211
I212
tp3806
a(I212
I17
tp3807
a(I17
I1345
tp3808
a(I1345
I1344
tp3809
a(I1344
I205
tp3810
a(I205
I215
tp3811
a(I215
I214
tp3812
a(I214
I211
tp3813
aa(lp3814
(I243
I250
tp3815
a(I250
I251
tp3816
a(I251
I249
tp3817
a(I249
I248
tp3818
a(I248
I246
tp3819
a(I246
I222
tp3820
a(I222
I221
tp3821
a(I221
I243
tp3822
aa(lp3823
(I58
I14
tp3824
a(I14
I25
tp3825
a(I25
I47
tp3826
a(I47
I36
tp3827
a(I36
I1397
tp3828
a(I1397
I1363
tp3829
a(I1363
I1375
tp3830
a(I1375
I58
tp3831
aa(lp3832
(I156
I151
tp3833
a(I151
I150
tp3834
a(I150
I146
tp3835
a(I146
I1281
tp3836
a(I1281
I1282
tp3837
a(I1282
I1265
tp3838
a(I1265
I1266
tp3839
a(I1266
I156
tp3840
aa(lp3841
(I945
I125
tp3842
a(I125
I102
tp3843
a(I102
I69
tp3844
a(I69
I80
tp3845
a(I80
I946
tp3846
a(I946
I358
tp3847
a(I358
I347
tp3848
a(I347
I945
tp3849
aa(lp3850
(I731
I659
tp3851
a(I659
I660
tp3852
a(I660
I661
tp3853
a(I661
I224
tp3854
a(I224
I335
tp3855
a(I335
I658
tp3856
a(I658
I720
tp3857
a(I720
I731
tp3858
aa(lp3859
(I1587
I1589
tp3860
a(I1589
I1591
tp3861
a(I1591
I1590
tp3862
a(I1590
I1592
tp3863
a(I1592
I1588
tp3864
a(I1588
I1593
tp3865
a(I1593
I1581
tp3866
a(I1581
I1580
tp3867
a(I1580
I1587
tp3868
aa(lp3869
(I1399
I1401
tp3870
a(I1401
I1400
tp3871
a(I1400
I1396
tp3872
a(I1396
I1395
tp3873
a(I1395
I1369
tp3874
a(I1369
I1364
tp3875
a(I1364
I1304
tp3876
a(I1304
I1305
tp3877
a(I1305
I1399
tp3878
aa(lp3879
(I838
I847
tp3880
a(I847
I844
tp3881
a(I844
I846
tp3882
a(I846
I845
tp3883
a(I845
I841
tp3884
a(I841
I843
tp3885
a(I843
I707
tp3886
a(I707
I706
tp3887
a(I706
I838
tp3888
aa(lp3889
(I1165
I1067
tp3890
a(I1067
I1062
tp3891
a(I1062
I1049
tp3892
a(I1049
I1054
tp3893
a(I1054
I1167
tp3894
a(I1167
I1168
tp3895
a(I1168
I1166
tp3896
a(I1166
I1163
tp3897
a(I1163
I1165
tp3898
aa(lp3899
(I28
I24
tp3900
a(I24
I23
tp3901
a(I23
I22
tp3902
a(I22
I8
tp3903
a(I8
I7
tp3904
a(I7
I21
tp3905
a(I21
I26
tp3906
a(I26
I27
tp3907
a(I27
I28
tp3908
aa(lp3909
(I976
I1010
tp3910
a(I1010
I1011
tp3911
a(I1011
I1018
tp3912
a(I1018
I1014
tp3913
a(I1014
I1015
tp3914
a(I1015
I1017
tp3915
a(I1017
I1016
tp3916
a(I1016
I977
tp3917
a(I977
I976
tp3918
aa(lp3919
(I844
I847
tp3920
a(I847
I857
tp3921
a(I857
I858
tp3922
a(I858
I856
tp3923
a(I856
I849
tp3924
a(I849
I850
tp3925
a(I850
I854
tp3926
a(I854
I855
tp3927
a(I855
I844
tp3928
aa(lp3929
(I1019
I1030
tp3930
a(I1030
I194
tp3931
a(I194
I1339
tp3932
a(I1339
I1338
tp3933
a(I1338
I49
tp3934
a(I49
I192
tp3935
a(I192
I195
tp3936
a(I195
I1042
tp3937
a(I1042
I1019
tp3938
aa(lp3939
(I523
I528
tp3940
a(I528
I436
tp3941
a(I436
I434
tp3942
a(I434
I512
tp3943
a(I512
I522
tp3944
a(I522
I527
tp3945
a(I527
I526
tp3946
a(I526
I525
tp3947
a(I525
I523
tp3948
aa(lp3949
(I881
I891
tp3950
a(I891
I893
tp3951
a(I893
I892
tp3952
a(I892
I889
tp3953
a(I889
I888
tp3954
a(I888
I890
tp3955
a(I890
I887
tp3956
a(I887
I880
tp3957
a(I880
I881
tp3958
aa(lp3959
(I116
I108
tp3960
a(I108
I107
tp3961
a(I107
I126
tp3962
a(I126
I123
tp3963
a(I123
I122
tp3964
a(I122
I120
tp3965
a(I120
I121
tp3966
a(I121
I115
tp3967
a(I115
I116
tp3968
aa(lp3969
(I958
I959
tp3970
a(I959
I960
tp3971
a(I960
I961
tp3972
a(I961
I962
tp3973
a(I962
I963
tp3974
a(I963
I925
tp3975
a(I925
I923
tp3976
a(I923
I937
tp3977
a(I937
I958
tp3978
aa(lp3979
(I24
I28
tp3980
a(I28
I41
tp3981
a(I41
I40
tp3982
a(I40
I42
tp3983
a(I42
I43
tp3984
a(I43
I39
tp3985
a(I39
I44
tp3986
a(I44
I37
tp3987
a(I37
I24
tp3988
aa(lp3989
(I1031
I1032
tp3990
a(I1032
I1027
tp3991
a(I1027
I1026
tp3992
a(I1026
I1308
tp3993
a(I1308
I1330
tp3994
a(I1330
I1033
tp3995
a(I1033
I1028
tp3996
a(I1028
I1029
tp3997
a(I1029
I1031
tp3998
aa(lp3999
(I497
I495
tp4000
a(I495
I501
tp4001
a(I501
I504
tp4002
a(I504
I399
tp4003
a(I399
I392
tp4004
a(I392
I394
tp4005
a(I394
I506
tp4006
a(I506
I505
tp4007
a(I505
I497
tp4008
aa(lp4009
(I1496
I1494
tp4010
a(I1494
I1495
tp4011
a(I1495
I1493
tp4012
a(I1493
I1460
tp4013
a(I1460
I1459
tp4014
a(I1459
I1489
tp4015
a(I1489
I1490
tp4016
a(I1490
I1492
tp4017
a(I1492
I1496
tp4018
aa(lp4019
(I790
I788
tp4020
a(I788
I802
tp4021
a(I802
I815
tp4022
a(I815
I824
tp4023
a(I824
I823
tp4024
a(I823
I810
tp4025
a(I810
I811
tp4026
a(I811
I822
tp4027
a(I822
I790
tp4028
aa(lp4029
(I1169
I1170
tp4030
a(I1170
I1171
tp4031
a(I1171
I1172
tp4032
a(I1172
I1163
tp4033
a(I1163
I1166
tp4034
a(I1166
I1123
tp4035
a(I1123
I1124
tp4036
a(I1124
I1173
tp4037
a(I1173
I1169
tp4038
aa(lp4039
(I540
I516
tp4040
a(I516
I515
tp4041
a(I515
I539
tp4042
a(I539
I530
tp4043
a(I530
I328
tp4044
a(I328
I329
tp4045
a(I329
I542
tp4046
a(I542
I541
tp4047
a(I541
I540
tp4048
aa(lp4049
(I1262
I1259
tp4050
a(I1259
I149
tp4051
a(I149
I150
tp4052
a(I150
I151
tp4053
a(I151
I152
tp4054
a(I152
I155
tp4055
a(I155
I154
tp4056
a(I154
I153
tp4057
a(I153
I1262
tp4058
aa(lp4059
(I724
I734
tp4060
a(I734
I733
tp4061
a(I733
I730
tp4062
a(I730
I732
tp4063
a(I732
I728
tp4064
a(I728
I729
tp4065
a(I729
I727
tp4066
a(I727
I719
tp4067
a(I719
I724
tp4068
aa(lp4069
(I1464
I1462
tp4070
a(I1462
I1504
tp4071
a(I1504
I1513
tp4072
a(I1513
I1512
tp4073
a(I1512
I1509
tp4074
a(I1509
I1510
tp4075
a(I1510
I1511
tp4076
a(I1511
I1465
tp4077
a(I1465
I1464
tp4078
aa(lp4079
(I964
I975
tp4080
a(I975
I997
tp4081
a(I997
I986
tp4082
a(I986
I1008
tp4083
a(I1008
I842
tp4084
a(I842
I942
tp4085
a(I942
I1030
tp4086
a(I1030
I1019
tp4087
a(I1019
I964
tp4088
aa(lp4089
(I1432
I1433
tp4090
a(I1433
I1434
tp4091
a(I1434
I1422
tp4092
a(I1422
I1423
tp4093
a(I1423
I1358
tp4094
a(I1358
I1360
tp4095
a(I1360
I1436
tp4096
a(I1436
I1435
tp4097
a(I1435
I1432
tp4098
aa(lp4099
(I1106
I1100
tp4100
a(I1100
I1098
tp4101
a(I1098
I1148
tp4102
a(I1148
I1136
tp4103
a(I1136
I1145
tp4104
a(I1145
I1149
tp4105
a(I1149
I1150
tp4106
a(I1150
I1151
tp4107
a(I1151
I1106
tp4108
aa(lp4109
(I502
I491
tp4110
a(I491
I569
tp4111
a(I569
I657
tp4112
a(I657
I670
tp4113
a(I670
I666
tp4114
a(I666
I667
tp4115
a(I667
I668
tp4116
a(I668
I669
tp4117
a(I669
I502
tp4118
aa(lp4119
(I401
I398
tp4120
a(I398
I396
tp4121
a(I396
I395
tp4122
a(I395
I397
tp4123
a(I397
I390
tp4124
a(I390
I392
tp4125
a(I392
I399
tp4126
a(I399
I400
tp4127
a(I400
I401
tp4128
aa(lp4129
(I68
I70
tp4130
a(I70
I71
tp4131
a(I71
I1051
tp4132
a(I1051
I1055
tp4133
a(I1055
I1187
tp4134
a(I1187
I1189
tp4135
a(I1189
I66
tp4136
a(I66
I67
tp4137
a(I67
I68
tp4138
aa(lp4139
(I1081
I1074
tp4140
a(I1074
I1065
tp4141
a(I1065
I1066
tp4142
a(I1066
I1082
tp4143
a(I1082
I1083
tp4144
a(I1083
I1084
tp4145
a(I1084
I1087
tp4146
a(I1087
I1085
tp4147
a(I1085
I1081
tp4148
aa(lp4149
(I388
I387
tp4150
a(I387
I384
tp4151
a(I384
I386
tp4152
a(I386
I385
tp4153
a(I385
I383
tp4154
a(I383
I374
tp4155
a(I374
I381
tp4156
a(I381
I389
tp4157
a(I389
I388
tp4158
aa(lp4159
(I983
I984
tp4160
a(I984
I1115
tp4161
a(I1115
I1116
tp4162
a(I1116
I1118
tp4163
a(I1118
I1117
tp4164
a(I1117
I1101
tp4165
a(I1101
I1104
tp4166
a(I1104
I995
tp4167
a(I995
I983
tp4168
aa(lp4169
(I168
I128
tp4170
a(I128
I129
tp4171
a(I129
I118
tp4172
a(I118
I101
tp4173
a(I101
I103
tp4174
a(I103
I175
tp4175
a(I175
I176
tp4176
a(I176
I167
tp4177
a(I167
I168
tp4178
aa(lp4179
(I768
I772
tp4180
a(I772
I773
tp4181
a(I773
I774
tp4182
a(I774
I695
tp4183
a(I695
I696
tp4184
a(I696
I685
tp4185
a(I685
I687
tp4186
a(I687
I767
tp4187
a(I767
I768
tp4188
aa(lp4189
(I1225
I1226
tp4190
a(I1226
I1227
tp4191
a(I1227
I1228
tp4192
a(I1228
I1229
tp4193
a(I1229
I1198
tp4194
a(I1198
I1196
tp4195
a(I1196
I1206
tp4196
a(I1206
I1223
tp4197
a(I1223
I1225
tp4198
aa(lp4199
(I382
I509
tp4200
a(I509
I510
tp4201
a(I510
I511
tp4202
a(I511
I433
tp4203
a(I433
I432
tp4204
a(I432
I387
tp4205
a(I387
I388
tp4206
a(I388
I378
tp4207
a(I378
I382
tp4208
aa(lp4209
(I401
I500
tp4210
a(I500
I499
tp4211
a(I499
I503
tp4212
a(I503
I501
tp4213
a(I501
I495
tp4214
a(I495
I496
tp4215
a(I496
I407
tp4216
a(I407
I398
tp4217
a(I398
I401
tp4218
aa(lp4219
(I724
I719
tp4220
a(I719
I712
tp4221
a(I712
I716
tp4222
a(I716
I721
tp4223
a(I721
I726
tp4224
a(I726
I722
tp4225
a(I722
I725
tp4226
a(I725
I723
tp4227
a(I723
I724
tp4228
aa(lp4229
(I1462
I1464
tp4230
a(I1464
I1458
tp4231
a(I1458
I1438
tp4232
a(I1438
I1437
tp4233
a(I1437
I1443
tp4234
a(I1443
I1454
tp4235
a(I1454
I1459
tp4236
a(I1459
I1460
tp4237
a(I1460
I1461
tp4238
a(I1461
I1462
tp4239
aa(lp4240
(I1131
I1132
tp4241
a(I1132
I952
tp4242
a(I952
I956
tp4243
a(I956
I1129
tp4244
a(I1129
I1128
tp4245
a(I1128
I968
tp4246
a(I968
I969
tp4247
a(I969
I1122
tp4248
a(I1122
I1127
tp4249
a(I1127
I1131
tp4250
aa(lp4251
(I446
I664
tp4252
a(I664
I1263
tp4253
a(I1263
I930
tp4254
a(I930
I1152
tp4255
a(I1152
I2
tp4256
a(I2
I113
tp4257
a(I113
I335
tp4258
a(I335
I224
tp4259
a(I224
I557
tp4260
a(I557
I446
tp4261
aa(lp4262
(I1051
I71
tp4263
a(I71
I77
tp4264
a(I77
I76
tp4265
a(I76
I78
tp4266
a(I78
I75
tp4267
a(I75
I74
tp4268
a(I74
I73
tp4269
a(I73
I72
tp4270
a(I72
I1052
tp4271
a(I1052
I1051
tp4272
aa(lp4273
(I1214
I1215
tp4274
a(I1215
I1209
tp4275
a(I1209
I1213
tp4276
a(I1213
I1212
tp4277
a(I1212
I1207
tp4278
a(I1207
I1210
tp4279
a(I1210
I1211
tp4280
a(I1211
I1181
tp4281
a(I1181
I1185
tp4282
a(I1185
I1214
tp4283
aa(lp4284
(I1439
I1458
tp4285
a(I1458
I1464
tp4286
a(I1464
I1465
tp4287
a(I1465
I1468
tp4288
a(I1468
I1469
tp4289
a(I1469
I1467
tp4290
a(I1467
I1466
tp4291
a(I1466
I1433
tp4292
a(I1433
I1432
tp4293
a(I1432
I1439
tp4294
aa(lp4295
(I789
I788
tp4296
a(I788
I790
tp4297
a(I790
I791
tp4298
a(I791
I698
tp4299
a(I698
I695
tp4300
a(I695
I774
tp4301
a(I774
I787
tp4302
a(I787
I776
tp4303
a(I776
I779
tp4304
a(I779
I789
tp4305
aa(lp4306
(I1108
I1086
tp4307
a(I1086
I1053
tp4308
a(I1053
I1042
tp4309
a(I1042
I195
tp4310
a(I195
I650
tp4311
a(I650
I190
tp4312
a(I190
I188
tp4313
a(I188
I987
tp4314
a(I987
I1230
tp4315
a(I1230
I1108
tp4316
aa(lp4317
(I189
I188
tp4318
a(I188
I190
tp4319
a(I190
I193
tp4320
a(I193
I192
tp4321
a(I192
I49
tp4322
a(I49
I1285
tp4323
a(I1285
I1283
tp4324
a(I1283
I185
tp4325
a(I185
I187
tp4326
a(I187
I189
tp4327
aa(lp4328
(I801
I802
tp4329
a(I802
I788
tp4330
a(I788
I789
tp4331
a(I789
I796
tp4332
a(I796
I798
tp4333
a(I798
I799
tp4334
a(I799
I792
tp4335
a(I792
I794
tp4336
a(I794
I800
tp4337
a(I800
I801
tp4338
aa(lp4339
(I237
I238
tp4340
a(I238
I333
tp4341
a(I333
I334
tp4342
a(I334
I298
tp4343
a(I298
I296
tp4344
a(I296
I321
tp4345
a(I321
I338
tp4346
a(I338
I337
tp4347
a(I337
I339
tp4348
a(I339
I237
tp4349
aa(lp4350
(I641
I640
tp4351
a(I640
I10
tp4352
a(I10
I9
tp4353
a(I9
I30
tp4354
a(I30
I32
tp4355
a(I32
I35
tp4356
a(I35
I472
tp4357
a(I472
I471
tp4358
a(I471
I639
tp4359
a(I639
I641
tp4360
aa(lp4361
(I731
I720
tp4362
a(I720
I709
tp4363
a(I709
I686
tp4364
a(I686
I697
tp4365
a(I697
I675
tp4366
a(I675
I1374
tp4367
a(I1374
I1263
tp4368
a(I1263
I664
tp4369
a(I664
I742
tp4370
a(I742
I731
tp4371
aa(lp4372
(I229
I233
tp4373
a(I233
I262
tp4374
a(I262
I263
tp4375
a(I263
I261
tp4376
a(I261
I252
tp4377
a(I252
I255
tp4378
a(I255
I264
tp4379
a(I264
I266
tp4380
a(I266
I265
tp4381
a(I265
I229
tp4382
aa(lp4383
(I752
I751
tp4384
a(I751
I765
tp4385
a(I765
I848
tp4386
a(I848
I841
tp4387
a(I841
I845
tp4388
a(I845
I850
tp4389
a(I850
I849
tp4390
a(I849
I851
tp4391
a(I851
I852
tp4392
a(I852
I752
tp4393
aa(lp4394
(I97
I98
tp4395
a(I98
I99
tp4396
a(I99
I100
tp4397
a(I100
I83
tp4398
a(I83
I82
tp4399
a(I82
I94
tp4400
a(I94
I95
tp4401
a(I95
I103
tp4402
a(I103
I101
tp4403
a(I101
I97
tp4404
aa(lp4405
(I1530
I1519
tp4406
a(I1519
I1541
tp4407
a(I1541
I1563
tp4408
a(I1563
I1552
tp4409
a(I1552
I1574
tp4410
a(I1574
I1585
tp4411
a(I1585
I3
tp4412
a(I3
I1474
tp4413
a(I1474
I1508
tp4414
a(I1508
I1530
tp4415
aa(lp4416
(I498
I384
tp4417
a(I384
I387
tp4418
a(I387
I432
tp4419
a(I432
I421
tp4420
a(I421
I406
tp4421
a(I406
I408
tp4422
a(I408
I496
tp4423
a(I496
I495
tp4424
a(I495
I497
tp4425
a(I497
I498
tp4426
aa(lp4427
(I564
I565
tp4428
a(I565
I308
tp4429
a(I308
I307
tp4430
a(I307
I561
tp4431
a(I561
I245
tp4432
a(I245
I219
tp4433
a(I219
I220
tp4434
a(I220
I562
tp4435
a(I562
I563
tp4436
a(I563
I564
tp4437
aa(lp4438
(I1074
I1076
tp4439
a(I1076
I1077
tp4440
a(I1077
I1078
tp4441
a(I1078
I1079
tp4442
a(I1079
I1080
tp4443
a(I1080
I980
tp4444
a(I980
I979
tp4445
a(I979
I1063
tp4446
a(I1063
I1065
tp4447
a(I1065
I1074
tp4448
aa(lp4449
(I1244
I1245
tp4450
a(I1245
I1237
tp4451
a(I1237
I1212
tp4452
a(I1212
I1213
tp4453
a(I1213
I50
tp4454
a(I50
I52
tp4455
a(I52
I53
tp4456
a(I53
I51
tp4457
a(I51
I54
tp4458
a(I54
I1244
tp4459
aa(lp4460
(I951
I1386
tp4461
a(I1386
I1352
tp4462
a(I1352
I1241
tp4463
a(I1241
I1341
tp4464
a(I1341
I966
tp4465
a(I966
I965
tp4466
a(I965
I967
tp4467
a(I967
I969
tp4468
a(I969
I968
tp4469
a(I968
I951
tp4470
aa(lp4471
(I297
I296
tp4472
a(I296
I298
tp4473
a(I298
I299
tp4474
a(I299
I235
tp4475
a(I235
I234
tp4476
a(I234
I284
tp4477
a(I284
I292
tp4478
a(I292
I300
tp4479
a(I300
I295
tp4480
a(I295
I297
tp4481
aa(lp4482
(I861
I856
tp4483
a(I856
I858
tp4484
a(I858
I883
tp4485
a(I883
I882
tp4486
a(I882
I884
tp4487
a(I884
I885
tp4488
a(I885
I881
tp4489
a(I881
I880
tp4490
a(I880
I865
tp4491
a(I865
I861
tp4492
aa(lp4493
(I1220
I1216
tp4494
a(I1216
I1217
tp4495
a(I1217
I1207
tp4496
a(I1207
I1212
tp4497
a(I1212
I1237
tp4498
a(I1237
I1238
tp4499
a(I1238
I1233
tp4500
a(I1233
I1224
tp4501
a(I1224
I1221
tp4502
a(I1221
I1220
tp4503
aa(lp4504
(I205
I1344
tp4505
a(I1344
I1343
tp4506
a(I1343
I203
tp4507
a(I203
I204
tp4508
a(I204
I207
tp4509
a(I207
I209
tp4510
a(I209
I210
tp4511
a(I210
I208
tp4512
a(I208
I206
tp4513
a(I206
I205
tp4514
aa(lp4515
(I1423
I1422
tp4516
a(I1422
I1424
tp4517
a(I1424
I1425
tp4518
a(I1425
I1426
tp4519
a(I1426
I932
tp4520
a(I932
I929
tp4521
a(I929
I1421
tp4522
a(I1421
I1357
tp4523
a(I1357
I1359
tp4524
a(I1359
I1423
tp4525
aa(lp4526
(I782
I785
tp4527
a(I785
I939
tp4528
a(I939
I769
tp4529
a(I769
I771
tp4530
a(I771
I940
tp4531
a(I940
I941
tp4532
a(I941
I884
tp4533
a(I884
I882
tp4534
a(I882
I839
tp4535
a(I839
I840
tp4536
a(I840
I782
tp4537
aa(lp4538
(I801
I809
tp4539
a(I809
I812
tp4540
a(I812
I813
tp4541
a(I813
I814
tp4542
a(I814
I816
tp4543
a(I816
I818
tp4544
a(I818
I821
tp4545
a(I821
I817
tp4546
a(I817
I815
tp4547
a(I815
I802
tp4548
a(I802
I801
tp4549
aa(lp4550
(I687
I685
tp4551
a(I685
I688
tp4552
a(I688
I682
tp4553
a(I682
I683
tp4554
a(I683
I671
tp4555
a(I671
I678
tp4556
a(I678
I691
tp4557
a(I691
I690
tp4558
a(I690
I689
tp4559
a(I689
I684
tp4560
a(I684
I687
tp4561
aa(lp4562
(I280
I302
tp4563
a(I302
I905
tp4564
a(I905
I424
tp4565
a(I424
I413
tp4566
a(I413
I904
tp4567
a(I904
I902
tp4568
a(I902
I899
tp4569
a(I899
I900
tp4570
a(I900
I906
tp4571
a(I906
I907
tp4572
a(I907
I280
tp4573
aa(lp4574
(I636
I637
tp4575
a(I637
I634
tp4576
a(I634
I633
tp4577
a(I633
I632
tp4578
a(I632
I631
tp4579
a(I631
I441
tp4580
a(I441
I442
tp4581
a(I442
I625
tp4582
a(I625
I623
tp4583
a(I623
I629
tp4584
a(I629
I636
tp4585
aa(lp4586
(I598
I597
tp4587
a(I597
I599
tp4588
a(I599
I601
tp4589
a(I601
I600
tp4590
a(I600
I603
tp4591
a(I603
I556
tp4592
a(I556
I559
tp4593
a(I559
I588
tp4594
a(I588
I585
tp4595
a(I585
I587
tp4596
a(I587
I598
tp4597
aa(lp4598
(I1348
I1347
tp4599
a(I1347
I1367
tp4600
a(I1367
I1370
tp4601
a(I1370
I1371
tp4602
a(I1371
I1373
tp4603
a(I1373
I1372
tp4604
a(I1372
I1377
tp4605
a(I1377
I1376
tp4606
a(I1376
I1317
tp4607
a(I1317
I1318
tp4608
a(I1318
I1348
tp4609
aa(lp4610
(I1501
I1499
tp4611
a(I1499
I1500
tp4612
a(I1500
I1529
tp4613
a(I1529
I1531
tp4614
a(I1531
I1532
tp4615
a(I1532
I1473
tp4616
a(I1473
I1472
tp4617
a(I1472
I1517
tp4618
a(I1517
I1521
tp4619
a(I1521
I1528
tp4620
a(I1528
I1501
tp4621
aa(lp4622
(I377
I240
tp4623
a(I240
I239
tp4624
a(I239
I370
tp4625
a(I370
I382
tp4626
a(I382
I378
tp4627
a(I378
I379
tp4628
a(I379
I381
tp4629
a(I381
I374
tp4630
a(I374
I376
tp4631
a(I376
I375
tp4632
a(I375
I377
tp4633
aa(lp4634
(I1130
I1119
tp4635
a(I1119
I986
tp4636
a(I986
I997
tp4637
a(I997
I1075
tp4638
a(I1075
I1064
tp4639
a(I1064
I1097
tp4640
a(I1097
I1153
tp4641
a(I1153
I1164
tp4642
a(I1164
I1175
tp4643
a(I1175
I1141
tp4644
a(I1141
I1130
tp4645
aa(lp4646
(I931
I1474
tp4647
a(I1474
I3
tp4648
a(I3
I568
tp4649
a(I568
I570
tp4650
a(I570
I643
tp4651
a(I643
I207
tp4652
a(I207
I204
tp4653
a(I204
I198
tp4654
a(I198
I797
tp4655
a(I797
I786
tp4656
a(I786
I931
tp4657
aa(lp4658
(I248
I249
tp4659
a(I249
I283
tp4660
a(I283
I285
tp4661
a(I285
I284
tp4662
a(I284
I234
tp4663
a(I234
I229
tp4664
a(I229
I265
tp4665
a(I265
I281
tp4666
a(I281
I282
tp4667
a(I282
I275
tp4668
a(I275
I248
tp4669
aa(lp4670
(I1094
I1089
tp4671
a(I1089
I1093
tp4672
a(I1093
I1096
tp4673
a(I1096
I1099
tp4674
a(I1099
I1098
tp4675
a(I1098
I1100
tp4676
a(I1100
I981
tp4677
a(I981
I980
tp4678
a(I980
I1080
tp4679
a(I1080
I1095
tp4680
a(I1095
I1094
tp4681
aa(lp4682
(I38
I44
tp4683
a(I44
I39
tp4684
a(I39
I48
tp4685
a(I48
I485
tp4686
a(I485
I492
tp4687
a(I492
I490
tp4688
a(I490
I464
tp4689
a(I464
I472
tp4690
a(I472
I35
tp4691
a(I35
I34
tp4692
a(I34
I38
tp4693
aa(lp4694
(I693
I694
tp4695
a(I694
I718
tp4696
a(I718
I717
tp4697
a(I717
I716
tp4698
a(I716
I712
tp4699
a(I712
I713
tp4700
a(I713
I714
tp4701
a(I714
I715
tp4702
a(I715
I673
tp4703
a(I673
I672
tp4704
a(I672
I693
tp4705
aa(lp4706
(I1466
I1471
tp4707
a(I1471
I1472
tp4708
a(I1472
I1473
tp4709
a(I1473
I1446
tp4710
a(I1446
I1457
tp4711
a(I1457
I1476
tp4712
a(I1476
I1475
tp4713
a(I1475
I1470
tp4714
a(I1470
I1434
tp4715
a(I1434
I1433
tp4716
a(I1433
I1466
tp4717
aa(lp4718
(I920
I918
tp4719
a(I918
I935
tp4720
a(I935
I535
tp4721
a(I535
I435
tp4722
a(I435
I458
tp4723
a(I458
I936
tp4724
a(I936
I938
tp4725
a(I938
I937
tp4726
a(I937
I923
tp4727
a(I923
I924
tp4728
a(I924
I920
tp4729
aa(lp4730
(I108
I116
tp4731
a(I116
I119
tp4732
a(I119
I129
tp4733
a(I129
I128
tp4734
a(I128
I130
tp4735
a(I130
I131
tp4736
a(I131
I132
tp4737
a(I132
I127
tp4738
a(I127
I65
tp4739
a(I65
I57
tp4740
a(I57
I108
tp4741
aa(lp4742
(I1069
I1070
tp4743
a(I1070
I1068
tp4744
a(I1068
I1072
tp4745
a(I1072
I1071
tp4746
a(I1071
I1073
tp4747
a(I1073
I1066
tp4748
a(I1066
I1065
tp4749
a(I1065
I1063
tp4750
a(I1063
I1061
tp4751
a(I1061
I1062
tp4752
a(I1062
I1067
tp4753
a(I1067
I1069
tp4754
aa(lp4755
(I1430
I1452
tp4756
a(I1452
I1463
tp4757
a(I1463
I1441
tp4758
a(I1441
I908
tp4759
a(I908
I919
tp4760
a(I919
I1208
tp4761
a(I1208
I1197
tp4762
a(I1197
I1363
tp4763
a(I1363
I1397
tp4764
a(I1397
I1408
tp4765
a(I1408
I1419
tp4766
a(I1419
I1430
tp4767
aa(lp4768
(I479
I474
tp4769
a(I474
I475
tp4770
a(I475
I484
tp4771
a(I484
I485
tp4772
a(I485
I48
tp4773
a(I48
I46
tp4774
a(I46
I423
tp4775
a(I423
I429
tp4776
a(I429
I430
tp4777
a(I430
I486
tp4778
a(I486
I483
tp4779
a(I483
I479
tp4780
aa(lp4781
(I1494
I1496
tp4782
a(I1496
I1491
tp4783
a(I1491
I1488
tp4784
a(I1488
I1483
tp4785
a(I1483
I1478
tp4786
a(I1478
I1479
tp4787
a(I1479
I1540
tp4788
a(I1540
I1539
tp4789
a(I1539
I1538
tp4790
a(I1538
I1534
tp4791
a(I1534
I1535
tp4792
a(I1535
I1494
tp4793
aa(lp4794
(I356
I353
tp4795
a(I353
I355
tp4796
a(I355
I354
tp4797
a(I354
I317
tp4798
a(I317
I316
tp4799
a(I316
I352
tp4800
a(I352
I362
tp4801
a(I362
I357
tp4802
a(I357
I361
tp4803
a(I361
I360
tp4804
a(I360
I359
tp4805
a(I359
I356
tp4806
aa(lp4807
(I134
I138
tp4808
a(I138
I139
tp4809
a(I139
I140
tp4810
a(I140
I141
tp4811
a(I141
I1278
tp4812
a(I1278
I1279
tp4813
a(I1279
I1253
tp4814
a(I1253
I1257
tp4815
a(I1257
I137
tp4816
a(I137
I135
tp4817
a(I135
I133
tp4818
a(I133
I134
tp4819
aa(lp4820
(I925
I926
tp4821
a(I926
I927
tp4822
a(I927
I928
tp4823
a(I928
I929
tp4824
a(I929
I932
tp4825
a(I932
I933
tp4826
a(I933
I934
tp4827
a(I934
I917
tp4828
a(I917
I921
tp4829
a(I921
I924
tp4830
a(I924
I923
tp4831
a(I923
I925
tp4832
aa(lp4833
(I721
I716
tp4834
a(I716
I717
tp4835
a(I717
I746
tp4836
a(I746
I747
tp4837
a(I747
I744
tp4838
a(I744
I741
tp4839
a(I741
I743
tp4840
a(I743
I668
tp4841
a(I668
I667
tp4842
a(I667
I739
tp4843
a(I739
I745
tp4844
a(I745
I721
tp4845
aa(lp4846
(I1522
I1524
tp4847
a(I1524
I1523
tp4848
a(I1523
I1516
tp4849
a(I1516
I1513
tp4850
a(I1513
I1504
tp4851
a(I1504
I1507
tp4852
a(I1507
I1527
tp4853
a(I1527
I1526
tp4854
a(I1526
I1525
tp4855
a(I1525
I1528
tp4856
a(I1528
I1521
tp4857
a(I1521
I1522
tp4858
aa(lp4859
(I1443
I1444
tp4860
a(I1444
I1456
tp4861
a(I1456
I1457
tp4862
a(I1457
I1446
tp4863
a(I1446
I1455
tp4864
a(I1455
I1447
tp4865
a(I1447
I1448
tp4866
a(I1448
I1453
tp4867
a(I1453
I1451
tp4868
a(I1451
I1450
tp4869
a(I1450
I1449
tp4870
a(I1449
I1454
tp4871
a(I1454
I1443
tp4872
aa(lp4873
(I575
I576
tp4874
a(I576
I573
tp4875
a(I573
I574
tp4876
a(I574
I572
tp4877
a(I572
I571
tp4878
a(I571
I566
tp4879
a(I566
I568
tp4880
a(I568
I3
tp4881
a(I3
I1585
tp4882
a(I1585
I922
tp4883
a(I922
I917
tp4884
a(I917
I934
tp4885
a(I934
I575
tp4886
aa(lp4887
(I541
I542
tp4888
a(I542
I553
tp4889
a(I553
I303
tp4890
a(I303
I306
tp4891
a(I306
I437
tp4892
a(I437
I438
tp4893
a(I438
I528
tp4894
a(I528
I523
tp4895
a(I523
I549
tp4896
a(I549
I551
tp4897
a(I551
I552
tp4898
a(I552
I544
tp4899
a(I544
I541
tp4900
aa(lp4901
(I447
I469
tp4902
a(I469
I480
tp4903
a(I480
I458
tp4904
a(I458
I435
tp4905
a(I435
I380
tp4906
a(I380
I391
tp4907
a(I391
I402
tp4908
a(I402
I413
tp4909
a(I413
I424
tp4910
a(I424
I269
tp4911
a(I269
I247
tp4912
a(I247
I369
tp4913
a(I369
I447
tp4914
aa(lp4915
(I864
I853
tp4916
a(I853
I875
tp4917
a(I875
I886
tp4918
a(I886
I897
tp4919
a(I897
I919
tp4920
a(I919
I908
tp4921
a(I908
I931
tp4922
a(I931
I786
tp4923
a(I786
I808
tp4924
a(I808
I953
tp4925
a(I953
I942
tp4926
a(I942
I842
tp4927
a(I842
I864
tp4928
aa(lp4929
(I167
I173
tp4930
a(I173
I172
tp4931
a(I172
I174
tp4932
a(I174
I88
tp4933
a(I88
I92
tp4934
a(I92
I138
tp4935
a(I138
I134
tp4936
a(I134
I127
tp4937
a(I127
I132
tp4938
a(I132
I171
tp4939
a(I171
I170
tp4940
a(I170
I168
tp4941
a(I168
I167
tp4942
aa(lp4943
(I995
I996
tp4944
a(I996
I965
tp4945
a(I965
I966
tp4946
a(I966
I994
tp4947
a(I994
I988
tp4948
a(I988
I992
tp4949
a(I992
I991
tp4950
a(I991
I993
tp4951
a(I993
I990
tp4952
a(I990
I989
tp4953
a(I989
I970
tp4954
a(I970
I983
tp4955
a(I983
I995
tp4956
aa(lp4957
(I957
I1195
tp4958
a(I1195
I1196
tp4959
a(I1196
I1198
tp4960
a(I1198
I1202
tp4961
a(I1202
I1201
tp4962
a(I1201
I1200
tp4963
a(I1200
I1204
tp4964
a(I1204
I1203
tp4965
a(I1203
I1199
tp4966
a(I1199
I1205
tp4967
a(I1205
I959
tp4968
a(I959
I958
tp4969
a(I958
I957
tp4970
aa(lp4971
(I1057
I1058
tp4972
a(I1058
I1059
tp4973
a(I1059
I1050
tp4974
a(I1050
I1055
tp4975
a(I1055
I1051
tp4976
a(I1051
I1052
tp4977
a(I1052
I1054
tp4978
a(I1054
I1049
tp4979
a(I1049
I1045
tp4980
a(I1045
I1047
tp4981
a(I1047
I1060
tp4982
a(I1060
I1056
tp4983
a(I1056
I1057
tp4984
aa(lp4985
(I1005
I1004
tp4986
a(I1004
I971
tp4987
a(I971
I974
tp4988
a(I974
I1001
tp4989
a(I1001
I998
tp4990
a(I998
I999
tp4991
a(I999
I1000
tp4992
a(I1000
I988
tp4993
a(I988
I994
tp4994
a(I994
I1006
tp4995
a(I1006
I1002
tp4996
a(I1002
I1003
tp4997
a(I1003
I1005
tp4998
aa(lp4999
(I772
I768
tp5000
a(I768
I770
tp5001
a(I770
I784
tp5002
a(I784
I785
tp5003
a(I785
I782
tp5004
a(I782
I783
tp5005
a(I783
I781
tp5006
a(I781
I780
tp5007
a(I780
I777
tp5008
a(I777
I778
tp5009
a(I778
I779
tp5010
a(I779
I776
tp5011
a(I776
I772
tp5012
aa(lp5013
(I629
I623
tp5014
a(I623
I621
tp5015
a(I621
I617
tp5016
a(I617
I1562
tp5017
a(I1562
I1551
tp5018
a(I1551
I1569
tp5019
a(I1569
I1570
tp5020
a(I1570
I1575
tp5021
a(I1575
I630
tp5022
a(I630
I626
tp5023
a(I626
I627
tp5024
a(I627
I628
tp5025
a(I628
I629
tp5026
aa(lp5027
(I1188
I1189
tp5028
a(I1189
I1187
tp5029
a(I1187
I1190
tp5030
a(I1190
I1185
tp5031
a(I1185
I1181
tp5032
a(I1181
I1182
tp5033
a(I1182
I1183
tp5034
a(I1183
I1184
tp5035
a(I1184
I1126
tp5036
a(I1126
I1123
tp5037
a(I1123
I1166
tp5038
a(I1166
I1168
tp5039
a(I1168
I1188
tp5040
aa(lp5041
(I1264
I1341
tp5042
a(I1341
I1241
tp5043
a(I1241
I1164
tp5044
a(I1164
I1153
tp5045
a(I1153
I1219
tp5046
a(I1219
I1252
tp5047
a(I1252
I1275
tp5048
a(I1275
I1286
tp5049
a(I1286
I1319
tp5050
a(I1319
I1330
tp5051
a(I1330
I1308
tp5052
a(I1308
I1297
tp5053
a(I1297
I1264
tp5054
aa(lp5055
(I324
I313
tp5056
a(I313
I911
tp5057
a(I911
I912
tp5058
a(I912
I891
tp5059
a(I891
I881
tp5060
a(I881
I885
tp5061
a(I885
I914
tp5062
a(I914
I677
tp5063
a(I677
I681
tp5064
a(I681
I613
tp5065
a(I613
I580
tp5066
a(I580
I591
tp5067
a(I591
I913
tp5068
a(I913
I324
tp5069
aa(lp5070
(I471
I472
tp5071
a(I472
I464
tp5072
a(I464
I465
tp5073
a(I465
I467
tp5074
a(I467
I466
tp5075
a(I466
I468
tp5076
a(I468
I463
tp5077
a(I463
I461
tp5078
a(I461
I462
tp5079
a(I462
I428
tp5080
a(I428
I427
tp5081
a(I427
I443
tp5082
a(I443
I470
tp5083
a(I470
I471
tp5084
aa(lp5085
(I1139
I1144
tp5086
a(I1144
I1145
tp5087
a(I1145
I1136
tp5088
a(I1136
I1137
tp5089
a(I1137
I1134
tp5090
a(I1134
I1135
tp5091
a(I1135
I1092
tp5092
a(I1092
I1091
tp5093
a(I1091
I1133
tp5094
a(I1133
I1138
tp5095
a(I1138
I1142
tp5096
a(I1142
I1143
tp5097
a(I1143
I1140
tp5098
a(I1140
I1139
tp5099
aa(lp5100
(I515
I516
tp5101
a(I516
I517
tp5102
a(I517
I518
tp5103
a(I518
I519
tp5104
a(I519
I520
tp5105
a(I520
I521
tp5106
a(I521
I522
tp5107
a(I522
I512
tp5108
a(I512
I511
tp5109
a(I511
I510
tp5110
a(I510
I348
tp5111
a(I348
I350
tp5112
a(I350
I514
tp5113
a(I514
I515
tp5114
aa(lp5115
(I1082
I1066
tp5116
a(I1066
I1073
tp5117
a(I1073
I1125
tp5118
a(I1125
I1124
tp5119
a(I1124
I1123
tp5120
a(I1123
I1126
tp5121
a(I1126
I1127
tp5122
a(I1127
I1122
tp5123
a(I1122
I967
tp5124
a(I967
I965
tp5125
a(I965
I996
tp5126
a(I996
I1105
tp5127
a(I1105
I1112
tp5128
a(I1112
I1082
tp5129
aa(lp5130
(I1278
I1284
tp5131
a(I1284
I1283
tp5132
a(I1283
I1285
tp5133
a(I1285
I1277
tp5134
a(I1277
I1276
tp5135
a(I1276
I1274
tp5136
a(I1274
I1272
tp5137
a(I1272
I1243
tp5138
a(I1243
I1267
tp5139
a(I1267
I1282
tp5140
a(I1282
I1281
tp5141
a(I1281
I1280
tp5142
a(I1280
I1279
tp5143
a(I1279
I1278
tp5144
aa(lp5145
(I367
I368
tp5146
a(I368
I372
tp5147
a(I372
I373
tp5148
a(I373
I357
tp5149
a(I357
I362
tp5150
a(I362
I351
tp5151
a(I351
I345
tp5152
a(I345
I346
tp5153
a(I346
I371
tp5154
a(I371
I370
tp5155
a(I370
I239
tp5156
a(I239
I237
tp5157
a(I237
I339
tp5158
a(I339
I367
tp5159
aa(lp5160
(I62
I64
tp5161
a(I64
I63
tp5162
a(I63
I61
tp5163
a(I61
I60
tp5164
a(I60
I57
tp5165
a(I57
I65
tp5166
a(I65
I1249
tp5167
a(I1249
I1250
tp5168
a(I1250
I1214
tp5169
a(I1214
I1185
tp5170
a(I1185
I1190
tp5171
a(I1190
I1050
tp5172
a(I1050
I1059
tp5173
a(I1059
I59
tp5174
a(I59
I62
tp5175
aa(lp5176
(I585
I578
tp5177
a(I578
I579
tp5178
a(I579
I582
tp5179
a(I582
I584
tp5180
a(I584
I583
tp5181
a(I583
I581
tp5182
a(I581
I309
tp5183
a(I309
I308
tp5184
a(I308
I565
tp5185
a(I565
I577
tp5186
a(I577
I571
tp5187
a(I571
I572
tp5188
a(I572
I586
tp5189
a(I586
I587
tp5190
a(I587
I585
tp5191
aa(lp5192
(I191
I258
tp5193
a(I258
I247
tp5194
a(I247
I269
tp5195
a(I269
I291
tp5196
a(I291
I302
tp5197
a(I302
I280
tp5198
a(I280
I313
tp5199
a(I313
I324
tp5200
a(I324
I336
tp5201
a(I336
I1541
tp5202
a(I1541
I1519
tp5203
a(I1519
I236
tp5204
a(I236
I213
tp5205
a(I213
I169
tp5206
a(I169
I191
tp5207
aa(lp5208
(I1576
I1577
tp5209
a(I1577
I1583
tp5210
a(I1583
I5
tp5211
a(I5
I6
tp5212
a(I6
I4
tp5213
a(I4
I1593
tp5214
a(I1593
I1588
tp5215
a(I1588
I10
tp5216
a(I10
I640
tp5217
a(I640
I630
tp5218
a(I630
I1575
tp5219
a(I1575
I1573
tp5220
a(I1573
I1572
tp5221
a(I1572
I1566
tp5222
a(I1566
I1565
tp5223
a(I1565
I1576
tp5224
aa(lp5225
(I294
I307
tp5226
a(I307
I308
tp5227
a(I308
I309
tp5228
a(I309
I314
tp5229
a(I314
I312
tp5230
a(I312
I311
tp5231
a(I311
I310
tp5232
a(I310
I306
tp5233
a(I306
I303
tp5234
a(I303
I304
tp5235
a(I304
I305
tp5236
a(I305
I301
tp5237
a(I301
I295
tp5238
a(I295
I300
tp5239
a(I300
I290
tp5240
a(I290
I294
tp5241
aa(lp5242
(I414
I410
tp5243
a(I410
I45
tp5244
a(I45
I43
tp5245
a(I43
I42
tp5246
a(I42
I406
tp5247
a(I406
I421
tp5248
a(I421
I409
tp5249
a(I409
I411
tp5250
a(I411
I412
tp5251
a(I412
I416
tp5252
a(I416
I419
tp5253
a(I419
I420
tp5254
a(I420
I418
tp5255
a(I418
I417
tp5256
a(I417
I415
tp5257
a(I415
I414
tp5258
aa(lp5259
(I681
I677
tp5260
a(I677
I678
tp5261
a(I678
I671
tp5262
a(I671
I672
tp5263
a(I672
I673
tp5264
a(I673
I676
tp5265
a(I676
I674
tp5266
a(I674
I666
tp5267
a(I666
I670
tp5268
a(I670
I679
tp5269
a(I679
I680
tp5270
a(I680
I646
tp5271
a(I646
I635
tp5272
a(I635
I602
tp5273
a(I602
I624
tp5274
a(I624
I681
tp5275
aa(lp5276
(I950
I948
tp5277
a(I948
I946
tp5278
a(I946
I80
tp5279
a(I80
I58
tp5280
a(I58
I1375
tp5281
a(I1375
I1386
tp5282
a(I1386
I951
tp5283
a(I951
I954
tp5284
a(I954
I955
tp5285
a(I955
I956
tp5286
a(I956
I952
tp5287
a(I952
I957
tp5288
a(I957
I958
tp5289
a(I958
I937
tp5290
a(I937
I938
tp5291
a(I938
I950
tp5292
aa(lp5293
(I1556
I1557
tp5294
a(I1557
I1558
tp5295
a(I1558
I1555
tp5296
a(I1555
I1554
tp5297
a(I1554
I1549
tp5298
a(I1549
I1550
tp5299
a(I1550
I1553
tp5300
a(I1553
I1551
tp5301
a(I1551
I1562
tp5302
a(I1562
I1561
tp5303
a(I1561
I1548
tp5304
a(I1548
I1544
tp5305
a(I1544
I1547
tp5306
a(I1547
I1559
tp5307
a(I1559
I1560
tp5308
a(I1560
I1556
tp5309
aa(lp5310
(I708
I1
tp5311
a(I1
I1485
tp5312
a(I1485
I753
tp5313
a(I753
I797
tp5314
a(I797
I198
tp5315
a(I198
I196
tp5316
a(I196
I197
tp5317
a(I197
I1340
tp5318
a(I1340
I1342
tp5319
a(I1342
I194
tp5320
a(I194
I1030
tp5321
a(I1030
I942
tp5322
a(I942
I953
tp5323
a(I953
I199
tp5324
a(I199
I200
tp5325
a(I200
I708
tp5326
aa(lp5327
(I434
I436
tp5328
a(I436
I438
tp5329
a(I438
I437
tp5330
a(I437
I439
tp5331
a(I439
I440
tp5332
a(I440
I442
tp5333
a(I442
I441
tp5334
a(I441
I443
tp5335
a(I443
I427
tp5336
a(I427
I425
tp5337
a(I425
I426
tp5338
a(I426
I431
tp5339
a(I431
I409
tp5340
a(I409
I421
tp5341
a(I421
I432
tp5342
a(I432
I433
tp5343
a(I433
I434
tp5344
aa(lp5345
(I754
I760
tp5346
a(I760
I761
tp5347
a(I761
I762
tp5348
a(I762
I391
tp5349
a(I391
I380
tp5350
a(I380
I513
tp5351
a(I513
I744
tp5352
a(I744
I747
tp5353
a(I747
I750
tp5354
a(I750
I749
tp5355
a(I749
I751
tp5356
a(I751
I752
tp5357
a(I752
I755
tp5358
a(I755
I756
tp5359
a(I756
I758
tp5360
a(I758
I757
tp5361
a(I757
I759
tp5362
a(I759
I754
tp5363
aa(lp5364
(I1347
I1348
tp5365
a(I1348
I1349
tp5366
a(I1349
I1353
tp5367
a(I1353
I1351
tp5368
a(I1351
I1350
tp5369
a(I1350
I1354
tp5370
a(I1354
I1316
tp5371
a(I1316
I1331
tp5372
a(I1331
I1362
tp5373
a(I1362
I1361
tp5374
a(I1361
I1360
tp5375
a(I1360
I1358
tp5376
a(I1358
I1359
tp5377
a(I1359
I1357
tp5378
a(I1357
I1356
tp5379
a(I1356
I1355
tp5380
a(I1355
I1346
tp5381
a(I1346
I1347
tp5382
aa(lp5383
(I228
I231
tp5384
a(I231
I230
tp5385
a(I230
I232
tp5386
a(I232
I233
tp5387
a(I233
I229
tp5388
a(I229
I234
tp5389
a(I234
I235
tp5390
a(I235
I238
tp5391
a(I238
I237
tp5392
a(I237
I239
tp5393
a(I239
I240
tp5394
a(I240
I241
tp5395
a(I241
I40
tp5396
a(I40
I41
tp5397
a(I41
I27
tp5398
a(I27
I26
tp5399
a(I26
I227
tp5400
a(I227
I228
tp5401
aa(lp5402
(I688
I696
tp5403
a(I696
I695
tp5404
a(I695
I698
tp5405
a(I698
I702
tp5406
a(I702
I701
tp5407
a(I701
I700
tp5408
a(I700
I703
tp5409
a(I703
I699
tp5410
a(I699
I704
tp5411
a(I704
I705
tp5412
a(I705
I706
tp5413
a(I706
I707
tp5414
a(I707
I710
tp5415
a(I710
I711
tp5416
a(I711
I694
tp5417
a(I694
I693
tp5418
a(I693
I692
tp5419
a(I692
I682
tp5420
a(I682
I688
tp5421
aa(lp5422
(I973
I972
tp5423
a(I972
I974
tp5424
a(I974
I971
tp5425
a(I971
I976
tp5426
a(I976
I977
tp5427
a(I977
I1252
tp5428
a(I1252
I1219
tp5429
a(I1219
I1230
tp5430
a(I1230
I987
tp5431
a(I987
I985
tp5432
a(I985
I978
tp5433
a(I978
I979
tp5434
a(I979
I980
tp5435
a(I980
I981
tp5436
a(I981
I982
tp5437
a(I982
I984
tp5438
a(I984
I983
tp5439
a(I983
I970
tp5440
a(I970
I973
tp5441
aa(lp5442
(I1104
I1101
tp5443
a(I1101
I1103
tp5444
a(I1103
I1102
tp5445
a(I1102
I982
tp5446
a(I982
I981
tp5447
a(I981
I1100
tp5448
a(I1100
I1106
tp5449
a(I1106
I1110
tp5450
a(I1110
I1109
tp5451
a(I1109
I1111
tp5452
a(I1111
I1107
tp5453
a(I1107
I1090
tp5454
a(I1090
I1088
tp5455
a(I1088
I1081
tp5456
a(I1081
I1085
tp5457
a(I1085
I1114
tp5458
a(I1114
I1113
tp5459
a(I1113
I1112
tp5460
a(I1112
I1105
tp5461
a(I1105
I1104
tp5462
aa(lp5463
(I1431
I1543
tp5464
a(I1543
I1545
tp5465
a(I1545
I1561
tp5466
a(I1561
I1562
tp5467
a(I1562
I617
tp5468
a(I617
I614
tp5469
a(I614
I615
tp5470
a(I615
I616
tp5471
a(I616
I600
tp5472
a(I600
I601
tp5473
a(I601
I611
tp5474
a(I611
I612
tp5475
a(I612
I618
tp5476
a(I618
I619
tp5477
a(I619
I605
tp5478
a(I605
I607
tp5479
a(I607
I575
tp5480
a(I575
I934
tp5481
a(I934
I933
tp5482
a(I933
I1431
tp5483
aa(lp5484
(I1305
I1304
tp5485
a(I1304
I1300
tp5486
a(I1300
I1312
tp5487
a(I1312
I1311
tp5488
a(I1311
I927
tp5489
a(I927
I926
tp5490
a(I926
I1289
tp5491
a(I1289
I1295
tp5492
a(I1295
I1313
tp5493
a(I1313
I1314
tp5494
a(I1314
I1315
tp5495
a(I1315
I1299
tp5496
a(I1299
I1301
tp5497
a(I1301
I1302
tp5498
a(I1302
I1303
tp5499
a(I1303
I1306
tp5500
a(I1306
I1307
tp5501
a(I1307
I1310
tp5502
a(I1310
I1309
tp5503
a(I1309
I1305
tp5504
aa(lp5505
(I297
I301
tp5506
a(I301
I305
tp5507
a(I305
I332
tp5508
a(I332
I330
tp5509
a(I330
I331
tp5510
a(I331
I329
tp5511
a(I329
I328
tp5512
a(I328
I322
tp5513
a(I322
I323
tp5514
a(I323
I325
tp5515
a(I325
I327
tp5516
a(I327
I326
tp5517
a(I326
I315
tp5518
a(I315
I316
tp5519
a(I316
I317
tp5520
a(I317
I319
tp5521
a(I319
I320
tp5522
a(I320
I318
tp5523
a(I318
I321
tp5524
a(I321
I296
tp5525
a(I296
I297
tp5526
aa(lp5527
(I1335
I1332
tp5528
a(I1332
I1329
tp5529
a(I1329
I1331
tp5530
a(I1331
I1316
tp5531
a(I1316
I1322
tp5532
a(I1322
I1321
tp5533
a(I1321
I1320
tp5534
a(I1320
I1318
tp5535
a(I1318
I1317
tp5536
a(I1317
I1326
tp5537
a(I1326
I1325
tp5538
a(I1325
I1324
tp5539
a(I1324
I1323
tp5540
a(I1323
I1328
tp5541
a(I1328
I1327
tp5542
a(I1327
I1299
tp5543
a(I1299
I1315
tp5544
a(I1315
I1337
tp5545
a(I1337
I1338
tp5546
a(I1338
I1339
tp5547
a(I1339
I1342
tp5548
a(I1342
I1340
tp5549
a(I1340
I1343
tp5550
a(I1343
I1344
tp5551
a(I1344
I1345
tp5552
a(I1345
I1336
tp5553
a(I1336
I1333
tp5554
a(I1333
I1334
tp5555
a(I1334
I1335
tp5556
aa(lp5557
(I1238
I1245
tp5558
a(I1245
I1244
tp5559
a(I1244
I1248
tp5560
a(I1248
I1247
tp5561
a(I1247
I1246
tp5562
a(I1246
I1209
tp5563
a(I1209
I1215
tp5564
a(I1215
I1250
tp5565
a(I1250
I1249
tp5566
a(I1249
I1251
tp5567
a(I1251
I1254
tp5568
a(I1254
I1256
tp5569
a(I1256
I1255
tp5570
a(I1255
I1257
tp5571
a(I1257
I1253
tp5572
a(I1253
I1258
tp5573
a(I1258
I1260
tp5574
a(I1260
I1261
tp5575
a(I1261
I1259
tp5576
a(I1259
I1262
tp5577
a(I1262
I1266
tp5578
a(I1266
I1265
tp5579
a(I1265
I1267
tp5580
a(I1267
I1243
tp5581
a(I1243
I1240
tp5582
a(I1240
I1242
tp5583
a(I1242
I1239
tp5584
a(I1239
I1205
tp5585
a(I1205
I1199
tp5586
a(I1199
I1233
tp5587
a(I1233
I1238
tp5588
aa.