(lp0
(lp1
(I180
I206
tp2
a(I206
I181
tp3
a(I181
I180
tp4
aa(lp5
(I594
I589
tp6
a(I589
I588
tp7
a(I588
I594
tp8
aa(lp9
(I523
I501
tp10
a(I501
I568
tp11
a(I568
I523
tp12
aa(lp13
(I124
I101
tp14
a(I101
I390
tp15
a(I390
I124
tp16
aa(lp17
(I399
I398
tp18
a(I398
I404
tp19
a(I404
I399
tp20
aa(lp21
(I241
I250
tp22
a(I250
I242
tp23
a(I242
I241
tp24
aa(lp25
(I524
I771
tp26
a(I771
I526
tp27
a(I526
I524
tp28
aa(lp29
(I446
I490
tp30
a(I490
I457
tp31
a(I457
I446
tp32
aa(lp33
(I511
I314
tp34
a(I314
I313
tp35
a(I313
I511
tp36
aa(lp37
(I510
I600
tp38
a(I600
I513
tp39
a(I513
I510
tp40
aa(lp41
(I661
I259
tp42
a(I259
I258
tp43
a(I258
I661
tp44
aa(lp45
(I164
I733
tp46
a(I733
I166
tp47
a(I166
I164
tp48
aa(lp49
(I122
I114
tp50
a(I114
I110
tp51
a(I110
I122
tp52
aa(lp53
(I226
I222
tp54
a(I222
I260
tp55
a(I260
I226
tp56
aa(lp57
(I744
I742
tp58
a(I742
I747
tp59
a(I747
I744
tp60
aa(lp61
(I115
I120
tp62
a(I120
I118
tp63
a(I118
I115
tp64
aa(lp65
(I193
I188
tp66
a(I188
I197
tp67
a(I197
I193
tp68
aa(lp69
(I97
I95
tp70
a(I95
I272
tp71
a(I272
I97
tp72
aa(lp73
(I424
I420
tp74
a(I420
I419
tp75
a(I419
I424
tp76
aa(lp77
(I283
I507
tp78
a(I507
I284
tp79
a(I284
I283
tp80
aa(lp81
(I123
I129
tp82
a(I129
I125
tp83
a(I125
I123
tp84
aa(lp85
(I677
I688
tp86
a(I688
I680
tp87
a(I680
I677
tp88
aa(lp89
(I689
I693
tp90
a(I693
I691
tp91
a(I691
I689
tp92
aa(lp93
(I381
I408
tp94
a(I408
I382
tp95
a(I382
I381
tp96
aa(lp97
(I668
I634
tp98
a(I634
I26
tp99
a(I26
I668
tp100
aa(lp101
(I91
I105
tp102
a(I105
I92
tp103
a(I92
I91
tp104
aa(lp105
(I709
I715
tp106
a(I715
I710
tp107
a(I710
I709
tp108
aa(lp109
(I768
I772
tp110
a(I772
I769
tp111
a(I769
I768
tp112
aa(lp113
(I377
I360
tp114
a(I360
I356
tp115
a(I356
I377
tp116
aa(lp117
(I167
I727
tp118
a(I727
I169
tp119
a(I169
I167
tp120
aa(lp121
(I447
I436
tp122
a(I436
I430
tp123
a(I430
I447
tp124
aa(lp125
(I502
I500
tp126
a(I500
I499
tp127
a(I499
I502
tp128
aa(lp129
(I159
I136
tp130
a(I136
I133
tp131
a(I133
I159
tp132
aa(lp133
(I752
I750
tp134
a(I750
I754
tp135
a(I754
I752
tp136
aa(lp137
(I487
I497
tp138
a(I497
I489
tp139
a(I489
I487
tp140
aa(lp141
(I312
I146
tp142
a(I146
I135
tp143
a(I135
I312
tp144
aa(lp145
(I154
I156
tp146
a(I156
I155
tp147
a(I155
I154
tp148
aa(lp149
(I248
I233
tp150
a(I233
I232
tp151
a(I232
I248
tp152
aa(lp153
(I619
I642
tp154
a(I642
I621
tp155
a(I621
I619
tp156
aa(lp157
(I773
I760
tp158
a(I760
I759
tp159
a(I759
I773
tp160
aa(lp161
(I203
I200
tp162
a(I200
I225
tp163
a(I225
I203
tp164
aa(lp165
(I9
I19
tp166
a(I19
I10
tp167
a(I10
I9
tp168
aa(lp169
(I415
I414
tp170
a(I414
I426
tp171
a(I426
I415
tp172
aa(lp173
(I346
I335
tp174
a(I335
I434
tp175
a(I434
I346
tp176
aa(lp177
(I100
I108
tp178
a(I108
I102
tp179
a(I102
I100
tp180
aa(lp181
(I586
I585
tp182
a(I585
I598
tp183
a(I598
I586
tp184
aa(lp185
(I663
I249
tp186
a(I249
I244
tp187
a(I244
I663
tp188
aa(lp189
(I361
I448
tp190
a(I448
I363
tp191
a(I363
I361
tp192
aa(lp193
(I579
I246
tp194
a(I246
I235
tp195
a(I235
I579
tp196
aa(lp197
(I540
I536
tp198
a(I536
I535
tp199
a(I535
I540
tp200
aa(lp201
(I778
I781
tp202
a(I781
I782
tp203
a(I782
I778
tp204
aa(lp205
(I572
I584
tp206
a(I584
I573
tp207
a(I573
I572
tp208
aa(lp209
(I221
I220
tp210
a(I220
I251
tp211
a(I251
I221
tp212
aa(lp213
(I783
I787
tp214
a(I787
I788
tp215
a(I788
I783
tp216
aa(lp217
(I602
I348
tp218
a(I348
I345
tp219
a(I345
I602
tp220
aa(lp221
(I437
I429
tp222
a(I429
I427
tp223
a(I427
I437
tp224
aa(lp225
(I645
I28
tp226
a(I28
I701
tp227
a(I701
I645
tp228
aa(lp229
(I11
I5
tp230
a(I5
I795
tp231
a(I795
I11
tp232
aa(lp233
(I461
I458
tp234
a(I458
I456
tp235
a(I456
I461
tp236
aa(lp237
(I542
I541
tp238
a(I541
I547
tp239
a(I547
I542
tp240
aa(lp241
(I88
I80
tp242
a(I80
I78
tp243
a(I78
I88
tp244
aa(lp245
(I227
I240
tp246
a(I240
I229
tp247
a(I229
I227
tp248
aa(lp249
(I704
I698
tp250
a(I698
I696
tp251
a(I696
I704
tp252
aa(lp253
(I86
I761
tp254
a(I761
I87
tp255
a(I87
I86
tp256
aa(lp257
(I465
I297
tp258
a(I297
I295
tp259
a(I295
I465
tp260
aa(lp261
(I692
I675
tp262
a(I675
I673
tp263
a(I673
I692
tp264
aa(lp265
(I49
I47
tp266
a(I47
I72
tp267
a(I72
I49
tp268
aa(lp269
(I641
I638
tp270
a(I638
I655
tp271
a(I655
I641
tp272
aa(lp273
(I271
I270
tp274
a(I270
I275
tp275
a(I275
I271
tp276
aa(lp277
(I716
I706
tp278
a(I706
I705
tp279
a(I705
I716
tp280
aa(lp281
(I683
I682
tp282
a(I682
I686
tp283
a(I686
I683
tp284
aa(lp285
(I629
I628
tp286
a(I628
I652
tp287
a(I652
I629
tp288
aa(lp289
(I726
I725
tp290
a(I725
I732
tp291
a(I732
I726
tp292
aa(lp293
(I328
I327
tp294
a(I327
I330
tp295
a(I330
I328
tp296
aa(lp297
(I308
I307
tp298
a(I307
I315
tp299
a(I315
I308
tp300
aa(lp301
(I591
I577
tp302
a(I577
I576
tp303
a(I576
I591
tp304
aa(lp305
(I464
I462
tp306
a(I462
I467
tp307
a(I467
I464
tp308
aa(lp309
(I662
I234
tp310
a(I234
I228
tp311
a(I228
I662
tp312
aa(lp313
(I336
I454
tp314
a(I454
I338
tp315
a(I338
I336
tp316
aa(lp317
(I471
I504
tp318
a(I504
I472
tp319
a(I472
I471
tp320
aa(lp321
(I453
I452
tp322
a(I452
I451
tp323
a(I451
I453
tp324
aa(lp325
(I657
I659
tp326
a(I659
I658
tp327
a(I658
I657
tp328
aa(lp329
(I261
I267
tp330
a(I267
I262
tp331
a(I262
I261
tp332
aa(lp333
(I396
I391
tp334
a(I391
I389
tp335
a(I389
I396
tp336
aa(lp337
(I763
I174
tp338
a(I174
I173
tp339
a(I173
I763
tp340
aa(lp341
(I275
I270
tp342
a(I270
I269
tp343
a(I269
I274
tp344
a(I274
I275
tp345
aa(lp346
(I633
I672
tp347
a(I672
I610
tp348
a(I610
I609
tp349
a(I609
I633
tp350
aa(lp351
(I482
I498
tp352
a(I498
I495
tp353
a(I495
I481
tp354
a(I481
I482
tp355
aa(lp356
(I14
I77
tp357
a(I77
I106
tp358
a(I106
I15
tp359
a(I15
I14
tp360
aa(lp361
(I571
I583
tp362
a(I583
I584
tp363
a(I584
I572
tp364
a(I572
I571
tp365
aa(lp366
(I450
I444
tp367
a(I444
I443
tp368
a(I443
I449
tp369
a(I449
I450
tp370
aa(lp371
(I322
I343
tp372
a(I343
I332
tp373
a(I332
I324
tp374
a(I324
I322
tp375
aa(lp376
(I455
I341
tp377
a(I341
I340
tp378
a(I340
I339
tp379
a(I339
I455
tp380
aa(lp381
(I173
I171
tp382
a(I171
I762
tp383
a(I762
I763
tp384
a(I763
I173
tp385
aa(lp386
(I531
I530
tp387
a(I530
I540
tp388
a(I540
I535
tp389
a(I535
I531
tp390
aa(lp391
(I135
I90
tp392
a(I90
I301
tp393
a(I301
I312
tp394
a(I312
I135
tp395
aa(lp396
(I480
I493
tp397
a(I493
I491
tp398
a(I491
I478
tp399
a(I478
I480
tp400
aa(lp401
(I697
I711
tp402
a(I711
I713
tp403
a(I713
I699
tp404
a(I699
I697
tp405
aa(lp406
(I740
I739
tp407
a(I739
I755
tp408
a(I755
I753
tp409
a(I753
I740
tp410
aa(lp411
(I114
I122
tp412
a(I122
I117
tp413
a(I117
I111
tp414
a(I111
I114
tp415
aa(lp416
(I562
I563
tp417
a(I563
I567
tp418
a(I567
I566
tp419
a(I566
I562
tp420
aa(lp421
(I67
I74
tp422
a(I74
I48
tp423
a(I48
I44
tp424
a(I44
I67
tp425
aa(lp426
(I25
I656
tp427
a(I656
I668
tp428
a(I668
I26
tp429
a(I26
I25
tp430
aa(lp431
(I316
I319
tp432
a(I319
I302
tp433
a(I302
I300
tp434
a(I300
I316
tp435
aa(lp436
(I182
I183
tp437
a(I183
I717
tp438
a(I717
I702
tp439
a(I702
I182
tp440
aa(lp441
(I550
I544
tp442
a(I544
I543
tp443
a(I543
I548
tp444
a(I548
I550
tp445
aa(lp446
(I145
I153
tp447
a(I153
I150
tp448
a(I150
I147
tp449
a(I147
I145
tp450
aa(lp451
(I303
I302
tp452
a(I302
I319
tp453
a(I319
I320
tp454
a(I320
I303
tp455
aa(lp456
(I621
I642
tp457
a(I642
I625
tp458
a(I625
I620
tp459
a(I620
I621
tp460
aa(lp461
(I435
I450
tp462
a(I450
I449
tp463
a(I449
I433
tp464
a(I433
I435
tp465
aa(lp466
(I52
I50
tp467
a(I50
I80
tp468
a(I80
I88
tp469
a(I88
I52
tp470
aa(lp471
(I492
I494
tp472
a(I494
I486
tp473
a(I486
I485
tp474
a(I485
I492
tp475
aa(lp476
(I365
I358
tp477
a(I358
I383
tp478
a(I383
I372
tp479
a(I372
I365
tp480
aa(lp481
(I60
I33
tp482
a(I33
I32
tp483
a(I32
I59
tp484
a(I59
I60
tp485
aa(lp486
(I151
I156
tp487
a(I156
I154
tp488
a(I154
I152
tp489
a(I152
I151
tp490
aa(lp491
(I506
I347
tp492
a(I347
I348
tp493
a(I348
I602
tp494
a(I602
I506
tp495
aa(lp496
(I701
I28
tp497
a(I28
I27
tp498
a(I27
I690
tp499
a(I690
I701
tp500
aa(lp501
(I508
I318
tp502
a(I318
I311
tp503
a(I311
I310
tp504
a(I310
I508
tp505
aa(lp506
(I4
I5
tp507
a(I5
I11
tp508
a(I11
I8
tp509
a(I8
I4
tp510
aa(lp511
(I56
I58
tp512
a(I58
I64
tp513
a(I64
I63
tp514
a(I63
I56
tp515
aa(lp516
(I492
I491
tp517
a(I491
I493
tp518
a(I493
I494
tp519
a(I494
I492
tp520
aa(lp521
(I254
I635
tp522
a(I635
I616
tp523
a(I616
I253
tp524
a(I253
I254
tp525
aa(lp526
(I778
I782
tp527
a(I782
I623
tp528
a(I623
I612
tp529
a(I612
I778
tp530
aa(lp531
(I581
I582
tp532
a(I582
I595
tp533
a(I595
I592
tp534
a(I592
I581
tp535
aa(lp536
(I607
I606
tp537
a(I606
I617
tp538
a(I617
I608
tp539
a(I608
I607
tp540
aa(lp541
(I177
I187
tp542
a(I187
I184
tp543
a(I184
I176
tp544
a(I176
I177
tp545
aa(lp546
(I644
I649
tp547
a(I649
I653
tp548
a(I653
I646
tp549
a(I646
I644
tp550
aa(lp551
(I755
I739
tp552
a(I739
I730
tp553
a(I730
I729
tp554
a(I729
I755
tp555
aa(lp556
(I1
I0
tp557
a(I0
I556
tp558
a(I556
I785
tp559
a(I785
I1
tp560
aa(lp561
(I442
I441
tp562
a(I441
I431
tp563
a(I431
I432
tp564
a(I432
I442
tp565
aa(lp566
(I695
I198
tp567
a(I198
I196
tp568
a(I196
I694
tp569
a(I694
I695
tp570
aa(lp571
(I788
I780
tp572
a(I780
I779
tp573
a(I779
I783
tp574
a(I783
I788
tp575
aa(lp576
(I374
I409
tp577
a(I409
I421
tp578
a(I421
I375
tp579
a(I375
I374
tp580
aa(lp581
(I256
I660
tp582
a(I660
I661
tp583
a(I661
I258
tp584
a(I258
I256
tp585
aa(lp586
(I416
I410
tp587
a(I410
I424
tp588
a(I424
I419
tp589
a(I419
I416
tp590
aa(lp591
(I417
I418
tp592
a(I418
I405
tp593
a(I405
I403
tp594
a(I403
I417
tp595
aa(lp596
(I45
I73
tp597
a(I73
I37
tp598
a(I37
I36
tp599
a(I36
I45
tp600
aa(lp601
(I74
I67
tp602
a(I67
I66
tp603
a(I66
I71
tp604
a(I71
I74
tp605
aa(lp606
(I761
I86
tp607
a(I86
I54
tp608
a(I54
I53
tp609
a(I53
I761
tp610
aa(lp611
(I687
I678
tp612
a(I678
I680
tp613
a(I680
I688
tp614
a(I688
I687
tp615
aa(lp616
(I335
I323
tp617
a(I323
I401
tp618
a(I401
I434
tp619
a(I434
I335
tp620
aa(lp621
(I425
I426
tp622
a(I426
I414
tp623
a(I414
I411
tp624
a(I411
I425
tp625
aa(lp626
(I112
I1
tp627
a(I1
I785
tp628
a(I785
I2
tp629
a(I2
I112
tp630
aa(lp631
(I519
I517
tp632
a(I517
I516
tp633
a(I516
I603
tp634
a(I603
I519
tp635
aa(lp636
(I665
I239
tp637
a(I239
I238
tp638
a(I238
I684
tp639
a(I684
I665
tp640
aa(lp641
(I560
I559
tp642
a(I559
I562
tp643
a(I562
I566
tp644
a(I566
I560
tp645
aa(lp646
(I695
I694
tp647
a(I694
I192
tp648
a(I192
I191
tp649
a(I191
I695
tp650
aa(lp651
(I378
I351
tp652
a(I351
I350
tp653
a(I350
I370
tp654
a(I370
I378
tp655
aa(lp656
(I658
I659
tp657
a(I659
I648
tp658
a(I648
I647
tp659
a(I647
I658
tp660
aa(lp661
(I767
I29
tp662
a(I29
I6
tp663
a(I6
I775
tp664
a(I775
I767
tp665
aa(lp666
(I194
I83
tp667
a(I83
I82
tp668
a(I82
I186
tp669
a(I186
I194
tp670
aa(lp671
(I594
I588
tp672
a(I588
I587
tp673
a(I587
I593
tp674
a(I593
I594
tp675
aa(lp676
(I684
I685
tp677
a(I685
I666
tp678
a(I666
I665
tp679
a(I665
I684
tp680
aa(lp681
(I564
I565
tp682
a(I565
I599
tp683
a(I599
I574
tp684
a(I574
I564
tp685
aa(lp686
(I544
I550
tp687
a(I550
I538
tp688
a(I538
I537
tp689
a(I537
I544
tp690
aa(lp691
(I248
I232
tp692
a(I232
I231
tp693
a(I231
I247
tp694
a(I247
I248
tp695
aa(lp696
(I368
I212
tp697
a(I212
I201
tp698
a(I201
I290
tp699
a(I290
I368
tp700
aa(lp701
(I747
I746
tp702
a(I746
I743
tp703
a(I743
I744
tp704
a(I744
I747
tp705
aa(lp706
(I549
I548
tp707
a(I548
I543
tp708
a(I543
I546
tp709
a(I546
I549
tp710
aa(lp711
(I390
I379
tp712
a(I379
I113
tp713
a(I113
I124
tp714
a(I124
I390
tp715
aa(lp716
(I287
I288
tp717
a(I288
I604
tp718
a(I604
I291
tp719
a(I291
I287
tp720
aa(lp721
(I247
I231
tp722
a(I231
I230
tp723
a(I230
I245
tp724
a(I245
I247
tp725
aa(lp726
(I139
I138
tp727
a(I138
I528
tp728
a(I528
I141
tp729
a(I141
I139
tp730
aa(lp731
(I304
I328
tp732
a(I328
I330
tp733
a(I330
I305
tp734
a(I305
I304
tp735
aa(lp736
(I681
I669
tp737
a(I669
I666
tp738
a(I666
I685
tp739
a(I685
I681
tp740
aa(lp741
(I692
I693
tp742
a(I693
I689
tp743
a(I689
I674
tp744
a(I674
I675
tp745
a(I675
I692
tp746
aa(lp747
(I464
I467
tp748
a(I467
I466
tp749
a(I466
I473
tp750
a(I473
I463
tp751
a(I463
I464
tp752
aa(lp753
(I625
I642
tp754
a(I642
I619
tp755
a(I619
I618
tp756
a(I618
I624
tp757
a(I624
I625
tp758
aa(lp759
(I579
I235
tp760
a(I235
I257
tp761
a(I257
I534
tp762
a(I534
I512
tp763
a(I512
I579
tp764
aa(lp765
(I622
I640
tp766
a(I640
I651
tp767
a(I651
I652
tp768
a(I652
I628
tp769
a(I628
I622
tp770
aa(lp771
(I552
I553
tp772
a(I553
I558
tp773
a(I558
I555
tp774
a(I555
I554
tp775
a(I554
I552
tp776
aa(lp777
(I223
I334
tp778
a(I334
I39
tp779
a(I39
I34
tp780
a(I34
I774
tp781
a(I774
I223
tp782
aa(lp783
(I352
I355
tp784
a(I355
I354
tp785
a(I354
I353
tp786
a(I353
I349
tp787
a(I349
I352
tp788
aa(lp789
(I777
I723
tp790
a(I723
I712
tp791
a(I712
I790
tp792
a(I790
I786
tp793
a(I786
I777
tp794
aa(lp795
(I195
I194
tp796
a(I194
I186
tp797
a(I186
I185
tp798
a(I185
I189
tp799
a(I189
I195
tp800
aa(lp801
(I266
I285
tp802
a(I285
I273
tp803
a(I273
I274
tp804
a(I274
I269
tp805
a(I269
I266
tp806
aa(lp807
(I500
I496
tp808
a(I496
I495
tp809
a(I495
I498
tp810
a(I498
I499
tp811
a(I499
I500
tp812
aa(lp813
(I346
I434
tp814
a(I434
I401
tp815
a(I401
I168
tp816
a(I168
I79
tp817
a(I79
I346
tp818
aa(lp819
(I723
I777
tp820
a(I777
I776
tp821
a(I776
I601
tp822
a(I601
I590
tp823
a(I590
I723
tp824
aa(lp825
(I413
I415
tp826
a(I415
I426
tp827
a(I426
I425
tp828
a(I425
I422
tp829
a(I422
I413
tp830
aa(lp831
(I791
I789
tp832
a(I789
I794
tp833
a(I794
I527
tp834
a(I527
I525
tp835
a(I525
I791
tp836
aa(lp837
(I242
I250
tp838
a(I250
I251
tp839
a(I251
I220
tp840
a(I220
I218
tp841
a(I218
I242
tp842
aa(lp843
(I532
I142
tp844
a(I142
I141
tp845
a(I141
I528
tp846
a(I528
I529
tp847
a(I529
I532
tp848
aa(lp849
(I143
I130
tp850
a(I130
I139
tp851
a(I139
I141
tp852
a(I141
I142
tp853
a(I142
I143
tp854
aa(lp855
(I73
I69
tp856
a(I69
I70
tp857
a(I70
I38
tp858
a(I38
I37
tp859
a(I37
I73
tp860
aa(lp861
(I559
I560
tp862
a(I560
I561
tp863
a(I561
I554
tp864
a(I554
I555
tp865
a(I555
I559
tp866
aa(lp867
(I98
I509
tp868
a(I509
I514
tp869
a(I514
I158
tp870
a(I158
I99
tp871
a(I99
I98
tp872
aa(lp873
(I404
I398
tp874
a(I398
I397
tp875
a(I397
I417
tp876
a(I417
I403
tp877
a(I403
I404
tp878
aa(lp879
(I774
I667
tp880
a(I667
I556
tp881
a(I556
I0
tp882
a(I0
I223
tp883
a(I223
I774
tp884
aa(lp885
(I71
I72
tp886
a(I72
I47
tp887
a(I47
I48
tp888
a(I48
I74
tp889
a(I74
I71
tp890
aa(lp891
(I425
I411
tp892
a(I411
I407
tp893
a(I407
I406
tp894
a(I406
I422
tp895
a(I422
I425
tp896
aa(lp897
(I650
I651
tp898
a(I651
I640
tp899
a(I640
I641
tp900
a(I641
I655
tp901
a(I655
I650
tp902
aa(lp903
(I392
I393
tp904
a(I393
I453
tp905
a(I453
I451
tp906
a(I451
I440
tp907
a(I440
I392
tp908
aa(lp909
(I289
I277
tp910
a(I277
I276
tp911
a(I276
I287
tp912
a(I287
I291
tp913
a(I291
I289
tp914
aa(lp915
(I192
I694
tp916
a(I694
I196
tp917
a(I196
I195
tp918
a(I195
I189
tp919
a(I189
I192
tp920
aa(lp921
(I272
I95
tp922
a(I95
I94
tp923
a(I94
I202
tp924
a(I202
I265
tp925
a(I265
I272
tp926
aa(lp927
(I199
I204
tp928
a(I204
I210
tp929
a(I210
I211
tp930
a(I211
I209
tp931
a(I209
I199
tp932
aa(lp933
(I107
I108
tp934
a(I108
I100
tp935
a(I100
I103
tp936
a(I103
I119
tp937
a(I119
I107
tp938
aa(lp939
(I207
I205
tp940
a(I205
I699
tp941
a(I699
I713
tp942
a(I713
I714
tp943
a(I714
I207
tp944
aa(lp945
(I736
I735
tp946
a(I735
I746
tp947
a(I746
I747
tp948
a(I747
I742
tp949
a(I742
I736
tp950
aa(lp951
(I65
I63
tp952
a(I63
I64
tp953
a(I64
I70
tp954
a(I70
I69
tp955
a(I69
I65
tp956
aa(lp957
(I432
I433
tp958
a(I433
I449
tp959
a(I449
I443
tp960
a(I443
I442
tp961
a(I442
I432
tp962
aa(lp963
(I444
I450
tp964
a(I450
I435
tp965
a(I435
I436
tp966
a(I436
I447
tp967
a(I447
I444
tp968
aa(lp969
(I122
I110
tp970
a(I110
I109
tp971
a(I109
I116
tp972
a(I116
I117
tp973
a(I117
I122
tp974
aa(lp975
(I367
I369
tp976
a(I369
I337
tp977
a(I337
I338
tp978
a(I338
I454
tp979
a(I454
I367
tp980
aa(lp981
(I635
I254
tp982
a(I254
I255
tp983
a(I255
I643
tp984
a(I643
I636
tp985
a(I636
I635
tp986
aa(lp987
(I408
I381
tp988
a(I381
I380
tp989
a(I380
I387
tp990
a(I387
I402
tp991
a(I402
I408
tp992
aa(lp993
(I734
I4
tp994
a(I4
I8
tp995
a(I8
I792
tp996
a(I792
I745
tp997
a(I745
I734
tp998
aa(lp999
(I62
I51
tp1000
a(I51
I52
tp1001
a(I52
I88
tp1002
a(I88
I78
tp1003
a(I78
I62
tp1004
aa(lp1005
(I753
I755
tp1006
a(I755
I729
tp1007
a(I729
I728
tp1008
a(I728
I749
tp1009
a(I749
I753
tp1010
aa(lp1011
(I786
I790
tp1012
a(I790
I789
tp1013
a(I789
I791
tp1014
a(I791
I784
tp1015
a(I784
I786
tp1016
aa(lp1017
(I592
I593
tp1018
a(I593
I587
tp1019
a(I587
I580
tp1020
a(I580
I581
tp1021
a(I581
I592
tp1022
aa(lp1023
(I193
I197
tp1024
a(I197
I198
tp1025
a(I198
I695
tp1026
a(I695
I191
tp1027
a(I191
I193
tp1028
aa(lp1029
(I156
I151
tp1030
a(I151
I150
tp1031
a(I150
I153
tp1032
a(I153
I155
tp1033
a(I155
I156
tp1034
aa(lp1035
(I214
I213
tp1036
a(I213
I229
tp1037
a(I229
I240
tp1038
a(I240
I217
tp1039
a(I217
I214
tp1040
aa(lp1041
(I757
I769
tp1042
a(I769
I772
tp1043
a(I772
I773
tp1044
a(I773
I759
tp1045
a(I759
I757
tp1046
aa(lp1047
(I716
I705
tp1048
a(I705
I703
tp1049
a(I703
I710
tp1050
a(I710
I715
tp1051
a(I715
I716
tp1052
aa(lp1053
(I654
I657
tp1054
a(I657
I658
tp1055
a(I658
I647
tp1056
a(I647
I646
tp1057
a(I646
I653
tp1058
a(I653
I654
tp1059
aa(lp1060
(I127
I18
tp1061
a(I18
I17
tp1062
a(I17
I125
tp1063
a(I125
I129
tp1064
a(I129
I128
tp1065
a(I128
I127
tp1066
aa(lp1067
(I288
I287
tp1068
a(I287
I276
tp1069
a(I276
I273
tp1070
a(I273
I285
tp1071
a(I285
I286
tp1072
a(I286
I288
tp1073
aa(lp1074
(I85
I87
tp1075
a(I87
I761
tp1076
a(I761
I53
tp1077
a(I53
I55
tp1078
a(I55
I170
tp1079
a(I170
I85
tp1080
aa(lp1081
(I578
I569
tp1082
a(I569
I570
tp1083
a(I570
I575
tp1084
a(I575
I576
tp1085
a(I576
I577
tp1086
a(I577
I578
tp1087
aa(lp1088
(I749
I752
tp1089
a(I752
I754
tp1090
a(I754
I738
tp1091
a(I738
I740
tp1092
a(I740
I753
tp1093
a(I753
I749
tp1094
aa(lp1095
(I445
I42
tp1096
a(I42
I41
tp1097
a(I41
I40
tp1098
a(I40
I39
tp1099
a(I39
I334
tp1100
a(I334
I445
tp1101
aa(lp1102
(I741
I738
tp1103
a(I738
I754
tp1104
a(I754
I750
tp1105
a(I750
I751
tp1106
a(I751
I748
tp1107
a(I748
I741
tp1108
aa(lp1109
(I21
I268
tp1110
a(I268
I179
tp1111
a(I179
I190
tp1112
a(I190
I23
tp1113
a(I23
I22
tp1114
a(I22
I21
tp1115
aa(lp1116
(I264
I252
tp1117
a(I252
I253
tp1118
a(I253
I616
tp1119
a(I616
I615
tp1120
a(I615
I614
tp1121
a(I614
I264
tp1122
aa(lp1123
(I325
I505
tp1124
a(I505
I506
tp1125
a(I506
I602
tp1126
a(I602
I345
tp1127
a(I345
I326
tp1128
a(I326
I325
tp1129
aa(lp1130
(I393
I388
tp1131
a(I388
I364
tp1132
a(I364
I362
tp1133
a(I362
I452
tp1134
a(I452
I453
tp1135
a(I453
I393
tp1136
aa(lp1137
(I388
I393
tp1138
a(I393
I392
tp1139
a(I392
I389
tp1140
a(I389
I391
tp1141
a(I391
I384
tp1142
a(I384
I388
tp1143
aa(lp1144
(I657
I654
tp1145
a(I654
I639
tp1146
a(I639
I637
tp1147
a(I637
I648
tp1148
a(I648
I659
tp1149
a(I659
I657
tp1150
aa(lp1151
(I157
I412
tp1152
a(I412
I446
tp1153
a(I446
I457
tp1154
a(I457
I24
tp1155
a(I24
I13
tp1156
a(I13
I157
tp1157
aa(lp1158
(I384
I391
tp1159
a(I391
I396
tp1160
a(I396
I395
tp1161
a(I395
I394
tp1162
a(I394
I385
tp1163
a(I385
I384
tp1164
aa(lp1165
(I502
I499
tp1166
a(I499
I498
tp1167
a(I498
I482
tp1168
a(I482
I476
tp1169
a(I476
I488
tp1170
a(I488
I502
tp1171
aa(lp1172
(I714
I707
tp1173
a(I707
I708
tp1174
a(I708
I613
tp1175
a(I613
I208
tp1176
a(I208
I207
tp1177
a(I207
I714
tp1178
aa(lp1179
(I311
I318
tp1180
a(I318
I317
tp1181
a(I317
I316
tp1182
a(I316
I300
tp1183
a(I300
I299
tp1184
a(I299
I311
tp1185
aa(lp1186
(I598
I597
tp1187
a(I597
I578
tp1188
a(I578
I577
tp1189
a(I577
I591
tp1190
a(I591
I586
tp1191
a(I586
I598
tp1192
aa(lp1193
(I101
I68
tp1194
a(I68
I212
tp1195
a(I212
I368
tp1196
a(I368
I379
tp1197
a(I379
I390
tp1198
a(I390
I101
tp1199
aa(lp1200
(I771
I524
tp1201
a(I524
I522
tp1202
a(I522
I758
tp1203
a(I758
I766
tp1204
a(I766
I770
tp1205
a(I770
I771
tp1206
aa(lp1207
(I281
I280
tp1208
a(I280
I483
tp1209
a(I483
I475
tp1210
a(I475
I469
tp1211
a(I469
I470
tp1212
a(I470
I281
tp1213
aa(lp1214
(I492
I485
tp1215
a(I485
I484
tp1216
a(I484
I477
tp1217
a(I477
I478
tp1218
a(I478
I491
tp1219
a(I491
I492
tp1220
aa(lp1221
(I245
I230
tp1222
a(I230
I234
tp1223
a(I234
I662
tp1224
a(I662
I663
tp1225
a(I663
I244
tp1226
a(I244
I245
tp1227
aa(lp1228
(I751
I750
tp1229
a(I750
I752
tp1230
a(I752
I749
tp1231
a(I749
I728
tp1232
a(I728
I731
tp1233
a(I731
I751
tp1234
aa(lp1235
(I772
I768
tp1236
a(I768
I766
tp1237
a(I766
I758
tp1238
a(I758
I760
tp1239
a(I760
I773
tp1240
a(I773
I772
tp1241
aa(lp1242
(I674
I689
tp1243
a(I689
I691
tp1244
a(I691
I611
tp1245
a(I611
I610
tp1246
a(I610
I672
tp1247
a(I672
I674
tp1248
aa(lp1249
(I677
I676
tp1250
a(I676
I683
tp1251
a(I683
I686
tp1252
a(I686
I687
tp1253
a(I687
I688
tp1254
a(I688
I677
tp1255
aa(lp1256
(I490
I479
tp1257
a(I479
I468
tp1258
a(I468
I35
tp1259
a(I35
I24
tp1260
a(I24
I457
tp1261
a(I457
I490
tp1262
aa(lp1263
(I297
I465
tp1264
a(I465
I463
tp1265
a(I463
I473
tp1266
a(I473
I474
tp1267
a(I474
I296
tp1268
a(I296
I297
tp1269
aa(lp1270
(I548
I549
tp1271
a(I549
I551
tp1272
a(I551
I539
tp1273
a(I539
I538
tp1274
a(I538
I550
tp1275
a(I550
I548
tp1276
aa(lp1277
(I341
I342
tp1278
a(I342
I294
tp1279
a(I294
I293
tp1280
a(I293
I331
tp1281
a(I331
I340
tp1282
a(I340
I341
tp1283
aa(lp1284
(I687
I686
tp1285
a(I686
I682
tp1286
a(I682
I671
tp1287
a(I671
I670
tp1288
a(I670
I678
tp1289
a(I678
I687
tp1290
aa(lp1291
(I40
I41
tp1292
a(I41
I762
tp1293
a(I762
I171
tp1294
a(I171
I170
tp1295
a(I170
I55
tp1296
a(I55
I40
tp1297
aa(lp1298
(I211
I216
tp1299
a(I216
I215
tp1300
a(I215
I213
tp1301
a(I213
I214
tp1302
a(I214
I209
tp1303
a(I209
I211
tp1304
aa(lp1305
(I503
I282
tp1306
a(I282
I281
tp1307
a(I281
I470
tp1308
a(I470
I472
tp1309
a(I472
I504
tp1310
a(I504
I503
tp1311
aa(lp1312
(I25
I26
tp1313
a(I26
I634
tp1314
a(I634
I279
tp1315
a(I279
I268
tp1316
a(I268
I21
tp1317
a(I21
I25
tp1318
aa(lp1319
(I496
I500
tp1320
a(I500
I502
tp1321
a(I502
I488
tp1322
a(I488
I489
tp1323
a(I489
I497
tp1324
a(I497
I496
tp1325
aa(lp1326
(I724
I737
tp1327
a(I737
I741
tp1328
a(I741
I748
tp1329
a(I748
I720
tp1330
a(I720
I718
tp1331
a(I718
I724
tp1332
aa(lp1333
(I379
I368
tp1334
a(I368
I290
tp1335
a(I290
I301
tp1336
a(I301
I90
tp1337
a(I90
I113
tp1338
a(I113
I379
tp1339
aa(lp1340
(I267
I261
tp1341
a(I261
I263
tp1342
a(I263
I286
tp1343
a(I286
I285
tp1344
a(I285
I266
tp1345
a(I266
I267
tp1346
aa(lp1347
(I223
I0
tp1348
a(I0
I1
tp1349
a(I1
I112
tp1350
a(I112
I445
tp1351
a(I445
I334
tp1352
a(I334
I223
tp1353
aa(lp1354
(I22
I23
tp1355
a(I23
I756
tp1356
a(I756
I679
tp1357
a(I679
I690
tp1358
a(I690
I27
tp1359
a(I27
I22
tp1360
aa(lp1361
(I746
I735
tp1362
a(I735
I737
tp1363
a(I737
I724
tp1364
a(I724
I722
tp1365
a(I722
I743
tp1366
a(I743
I746
tp1367
aa(lp1368
(I315
I307
tp1369
a(I307
I306
tp1370
a(I306
I600
tp1371
a(I600
I510
tp1372
a(I510
I511
tp1373
a(I511
I313
tp1374
a(I313
I315
tp1375
aa(lp1376
(I530
I531
tp1377
a(I531
I529
tp1378
a(I529
I528
tp1379
a(I528
I138
tp1380
a(I138
I137
tp1381
a(I137
I518
tp1382
a(I518
I530
tp1383
aa(lp1384
(I793
I794
tp1385
a(I794
I789
tp1386
a(I789
I790
tp1387
a(I790
I712
tp1388
a(I712
I745
tp1389
a(I745
I792
tp1390
a(I792
I793
tp1391
aa(lp1392
(I781
I778
tp1393
a(I778
I612
tp1394
a(I612
I601
tp1395
a(I601
I776
tp1396
a(I776
I779
tp1397
a(I779
I780
tp1398
a(I780
I781
tp1399
aa(lp1400
(I148
I152
tp1401
a(I152
I154
tp1402
a(I154
I155
tp1403
a(I155
I153
tp1404
a(I153
I145
tp1405
a(I145
I144
tp1406
a(I144
I148
tp1407
aa(lp1408
(I309
I515
tp1409
a(I515
I514
tp1410
a(I514
I509
tp1411
a(I509
I513
tp1412
a(I513
I600
tp1413
a(I600
I306
tp1414
a(I306
I309
tp1415
aa(lp1416
(I373
I371
tp1417
a(I371
I372
tp1418
a(I372
I383
tp1419
a(I383
I380
tp1420
a(I380
I381
tp1421
a(I381
I382
tp1422
a(I382
I373
tp1423
aa(lp1424
(I351
I378
tp1425
a(I378
I366
tp1426
a(I366
I367
tp1427
a(I367
I454
tp1428
a(I454
I336
tp1429
a(I336
I333
tp1430
a(I333
I351
tp1431
aa(lp1432
(I400
I397
tp1433
a(I397
I398
tp1434
a(I398
I399
tp1435
a(I399
I386
tp1436
a(I386
I385
tp1437
a(I385
I394
tp1438
a(I394
I400
tp1439
aa(lp1440
(I626
I643
tp1441
a(I643
I255
tp1442
a(I255
I259
tp1443
a(I259
I661
tp1444
a(I661
I660
tp1445
a(I660
I630
tp1446
a(I630
I626
tp1447
aa(lp1448
(I100
I102
tp1449
a(I102
I89
tp1450
a(I89
I92
tp1451
a(I92
I105
tp1452
a(I105
I104
tp1453
a(I104
I103
tp1454
a(I103
I100
tp1455
aa(lp1456
(I314
I310
tp1457
a(I310
I311
tp1458
a(I311
I299
tp1459
a(I299
I308
tp1460
a(I308
I315
tp1461
a(I315
I313
tp1462
a(I313
I314
tp1463
aa(lp1464
(I365
I372
tp1465
a(I372
I371
tp1466
a(I371
I370
tp1467
a(I370
I350
tp1468
a(I350
I349
tp1469
a(I349
I353
tp1470
a(I353
I365
tp1471
aa(lp1472
(I280
I278
tp1473
a(I278
I296
tp1474
a(I296
I474
tp1475
a(I474
I477
tp1476
a(I477
I484
tp1477
a(I484
I483
tp1478
a(I483
I280
tp1479
aa(lp1480
(I183
I161
tp1481
a(I161
I165
tp1482
a(I165
I722
tp1483
a(I722
I724
tp1484
a(I724
I718
tp1485
a(I718
I717
tp1486
a(I717
I183
tp1487
aa(lp1488
(I559
I555
tp1489
a(I555
I558
tp1490
a(I558
I565
tp1491
a(I565
I564
tp1492
a(I564
I563
tp1493
a(I563
I562
tp1494
a(I562
I559
tp1495
aa(lp1496
(I721
I720
tp1497
a(I720
I748
tp1498
a(I748
I751
tp1499
a(I751
I731
tp1500
a(I731
I732
tp1501
a(I732
I725
tp1502
a(I725
I721
tp1503
aa(lp1504
(I121
I120
tp1505
a(I120
I115
tp1506
a(I115
I116
tp1507
a(I116
I109
tp1508
a(I109
I107
tp1509
a(I107
I119
tp1510
a(I119
I121
tp1511
aa(lp1512
(I461
I460
tp1513
a(I460
I459
tp1514
a(I459
I342
tp1515
a(I342
I341
tp1516
a(I341
I455
tp1517
a(I455
I458
tp1518
a(I458
I461
tp1519
aa(lp1520
(I160
I176
tp1521
a(I176
I184
tp1522
a(I184
I185
tp1523
a(I185
I186
tp1524
a(I186
I82
tp1525
a(I82
I81
tp1526
a(I81
I160
tp1527
aa(lp1528
(I638
I639
tp1529
a(I639
I654
tp1530
a(I654
I653
tp1531
a(I653
I649
tp1532
a(I649
I650
tp1533
a(I650
I655
tp1534
a(I655
I638
tp1535
aa(lp1536
(I645
I656
tp1537
a(I656
I25
tp1538
a(I25
I21
tp1539
a(I21
I22
tp1540
a(I22
I27
tp1541
a(I27
I28
tp1542
a(I28
I645
tp1543
aa(lp1544
(I543
I544
tp1545
a(I544
I537
tp1546
a(I537
I533
tp1547
a(I533
I542
tp1548
a(I542
I547
tp1549
a(I547
I546
tp1550
a(I546
I543
tp1551
aa(lp1552
(I452
I362
tp1553
a(I362
I363
tp1554
a(I363
I448
tp1555
a(I448
I439
tp1556
a(I439
I440
tp1557
a(I440
I451
tp1558
a(I451
I452
tp1559
aa(lp1560
(I305
I330
tp1561
a(I330
I327
tp1562
a(I327
I329
tp1563
a(I329
I331
tp1564
a(I331
I293
tp1565
a(I293
I292
tp1566
a(I292
I305
tp1567
aa(lp1568
(I629
I652
tp1569
a(I652
I651
tp1570
a(I651
I650
tp1571
a(I650
I649
tp1572
a(I649
I644
tp1573
a(I644
I627
tp1574
a(I627
I629
tp1575
aa(lp1576
(I343
I322
tp1577
a(I322
I326
tp1578
a(I326
I345
tp1579
a(I345
I348
tp1580
a(I348
I347
tp1581
a(I347
I344
tp1582
a(I344
I343
tp1583
aa(lp1584
(I323
I357
tp1585
a(I357
I423
tp1586
a(I423
I412
tp1587
a(I412
I157
tp1588
a(I157
I168
tp1589
a(I168
I401
tp1590
a(I401
I323
tp1591
aa(lp1592
(I784
I787
tp1593
a(I787
I783
tp1594
a(I783
I779
tp1595
a(I779
I776
tp1596
a(I776
I777
tp1597
a(I777
I786
tp1598
a(I786
I784
tp1599
aa(lp1600
(I58
I59
tp1601
a(I59
I32
tp1602
a(I32
I31
tp1603
a(I31
I38
tp1604
a(I38
I70
tp1605
a(I70
I64
tp1606
a(I64
I58
tp1607
aa(lp1608
(I709
I710
tp1609
a(I710
I703
tp1610
a(I703
I707
tp1611
a(I707
I714
tp1612
a(I714
I713
tp1613
a(I713
I711
tp1614
a(I711
I709
tp1615
aa(lp1616
(I63
I65
tp1617
a(I65
I66
tp1618
a(I66
I67
tp1619
a(I67
I44
tp1620
a(I44
I43
tp1621
a(I43
I56
tp1622
a(I56
I63
tp1623
aa(lp1624
(I359
I431
tp1625
a(I431
I441
tp1626
a(I441
I438
tp1627
a(I438
I439
tp1628
a(I439
I448
tp1629
a(I448
I361
tp1630
a(I361
I359
tp1631
aa(lp1632
(I321
I329
tp1633
a(I329
I327
tp1634
a(I327
I328
tp1635
a(I328
I304
tp1636
a(I304
I303
tp1637
a(I303
I320
tp1638
a(I320
I321
tp1639
aa(lp1640
(I264
I614
tp1641
a(I614
I605
tp1642
a(I605
I604
tp1643
a(I604
I288
tp1644
a(I288
I286
tp1645
a(I286
I263
tp1646
a(I263
I264
tp1647
aa(lp1648
(I479
I490
tp1649
a(I490
I446
tp1650
a(I446
I412
tp1651
a(I412
I423
tp1652
a(I423
I568
tp1653
a(I568
I501
tp1654
a(I501
I479
tp1655
aa(lp1656
(I719
I721
tp1657
a(I721
I725
tp1658
a(I725
I726
tp1659
a(I726
I162
tp1660
a(I162
I169
tp1661
a(I169
I727
tp1662
a(I727
I719
tp1663
aa(lp1664
(I558
I553
tp1665
a(I553
I140
tp1666
a(I140
I130
tp1667
a(I130
I143
tp1668
a(I143
I599
tp1669
a(I599
I565
tp1670
a(I565
I558
tp1671
aa(lp1672
(I566
I567
tp1673
a(I567
I569
tp1674
a(I569
I578
tp1675
a(I578
I597
tp1676
a(I597
I596
tp1677
a(I596
I561
tp1678
a(I561
I560
tp1679
a(I560
I566
tp1680
aa(lp1681
(I264
I263
tp1682
a(I263
I261
tp1683
a(I261
I262
tp1684
a(I262
I260
tp1685
a(I260
I222
tp1686
a(I222
I219
tp1687
a(I219
I252
tp1688
a(I252
I264
tp1689
aa(lp1690
(I224
I246
tp1691
a(I246
I579
tp1692
a(I579
I512
tp1693
a(I512
I523
tp1694
a(I523
I568
tp1695
a(I568
I423
tp1696
a(I423
I357
tp1697
a(I357
I224
tp1698
aa(lp1699
(I766
I768
tp1700
a(I768
I769
tp1701
a(I769
I757
tp1702
a(I757
I175
tp1703
a(I175
I172
tp1704
a(I172
I764
tp1705
a(I764
I770
tp1706
a(I770
I766
tp1707
aa(lp1708
(I144
I145
tp1709
a(I145
I147
tp1710
a(I147
I131
tp1711
a(I131
I128
tp1712
a(I128
I129
tp1713
a(I129
I123
tp1714
a(I123
I126
tp1715
a(I126
I144
tp1716
aa(lp1717
(I188
I193
tp1718
a(I193
I191
tp1719
a(I191
I192
tp1720
a(I192
I189
tp1721
a(I189
I185
tp1722
a(I185
I184
tp1723
a(I184
I187
tp1724
a(I187
I188
tp1725
aa(lp1726
(I119
I103
tp1727
a(I103
I104
tp1728
a(I104
I149
tp1729
a(I149
I148
tp1730
a(I148
I144
tp1731
a(I144
I126
tp1732
a(I126
I121
tp1733
a(I121
I119
tp1734
aa(lp1735
(I172
I174
tp1736
a(I174
I763
tp1737
a(I763
I762
tp1738
a(I762
I41
tp1739
a(I41
I42
tp1740
a(I42
I765
tp1741
a(I765
I764
tp1742
a(I764
I172
tp1743
aa(lp1744
(I458
I455
tp1745
a(I455
I339
tp1746
a(I339
I337
tp1747
a(I337
I369
tp1748
a(I369
I354
tp1749
a(I354
I355
tp1750
a(I355
I456
tp1751
a(I456
I458
tp1752
aa(lp1753
(I666
I669
tp1754
a(I669
I664
tp1755
a(I664
I632
tp1756
a(I632
I631
tp1757
a(I631
I236
tp1758
a(I236
I239
tp1759
a(I239
I665
tp1760
a(I665
I666
tp1761
aa(lp1762
(I73
I45
tp1763
a(I45
I49
tp1764
a(I49
I72
tp1765
a(I72
I71
tp1766
a(I71
I66
tp1767
a(I66
I65
tp1768
a(I65
I69
tp1769
a(I69
I73
tp1770
aa(lp1771
(I465
I295
tp1772
a(I295
I294
tp1773
a(I294
I342
tp1774
a(I342
I459
tp1775
a(I459
I462
tp1776
a(I462
I464
tp1777
a(I464
I463
tp1778
a(I463
I465
tp1779
aa(lp1780
(I33
I60
tp1781
a(I60
I61
tp1782
a(I61
I75
tp1783
a(I75
I76
tp1784
a(I76
I77
tp1785
a(I77
I14
tp1786
a(I14
I12
tp1787
a(I12
I33
tp1788
aa(lp1789
(I132
I131
tp1790
a(I131
I147
tp1791
a(I147
I150
tp1792
a(I150
I151
tp1793
a(I151
I152
tp1794
a(I152
I148
tp1795
a(I148
I149
tp1796
a(I149
I132
tp1797
aa(lp1798
(I700
I708
tp1799
a(I708
I707
tp1800
a(I707
I703
tp1801
a(I703
I705
tp1802
a(I705
I706
tp1803
a(I706
I704
tp1804
a(I704
I696
tp1805
a(I696
I700
tp1806
aa(lp1807
(I515
I516
tp1808
a(I516
I517
tp1809
a(I517
I134
tp1810
a(I134
I136
tp1811
a(I136
I159
tp1812
a(I159
I158
tp1813
a(I158
I514
tp1814
a(I514
I515
tp1815
aa(lp1816
(I7
I3
tp1817
a(I3
I795
tp1818
a(I795
I5
tp1819
a(I5
I4
tp1820
a(I4
I734
tp1821
a(I734
I775
tp1822
a(I775
I6
tp1823
a(I6
I7
tp1824
aa(lp1825
(I744
I743
tp1826
a(I743
I722
tp1827
a(I722
I165
tp1828
a(I165
I166
tp1829
a(I166
I733
tp1830
a(I733
I736
tp1831
a(I736
I742
tp1832
a(I742
I744
tp1833
aa(lp1834
(I106
I111
tp1835
a(I111
I117
tp1836
a(I117
I116
tp1837
a(I116
I115
tp1838
a(I115
I118
tp1839
a(I118
I16
tp1840
a(I16
I15
tp1841
a(I15
I106
tp1842
aa(lp1843
(I715
I709
tp1844
a(I709
I711
tp1845
a(I711
I697
tp1846
a(I697
I698
tp1847
a(I698
I704
tp1848
a(I704
I706
tp1849
a(I706
I716
tp1850
a(I716
I715
tp1851
aa(lp1852
(I680
I678
tp1853
a(I678
I670
tp1854
a(I670
I664
tp1855
a(I664
I669
tp1856
a(I669
I681
tp1857
a(I681
I676
tp1858
a(I676
I677
tp1859
a(I677
I680
tp1860
aa(lp1861
(I11
I795
tp1862
a(I795
I3
tp1863
a(I3
I9
tp1864
a(I9
I10
tp1865
a(I10
I793
tp1866
a(I793
I792
tp1867
a(I792
I8
tp1868
a(I8
I11
tp1869
aa(lp1870
(I210
I611
tp1871
a(I611
I691
tp1872
a(I691
I693
tp1873
a(I693
I692
tp1874
a(I692
I673
tp1875
a(I673
I216
tp1876
a(I216
I211
tp1877
a(I211
I210
tp1878
aa(lp1879
(I12
I7
tp1880
a(I7
I6
tp1881
a(I6
I29
tp1882
a(I29
I30
tp1883
a(I30
I31
tp1884
a(I31
I32
tp1885
a(I32
I33
tp1886
a(I33
I12
tp1887
aa(lp1888
(I582
I581
tp1889
a(I581
I580
tp1890
a(I580
I575
tp1891
a(I575
I570
tp1892
a(I570
I573
tp1893
a(I573
I584
tp1894
a(I584
I583
tp1895
a(I583
I582
tp1896
aa(lp1897
(I112
I2
tp1898
a(I2
I35
tp1899
a(I35
I468
tp1900
a(I468
I557
tp1901
a(I557
I765
tp1902
a(I765
I42
tp1903
a(I42
I445
tp1904
a(I445
I112
tp1905
aa(lp1906
(I344
I352
tp1907
a(I352
I349
tp1908
a(I349
I350
tp1909
a(I350
I351
tp1910
a(I351
I333
tp1911
a(I333
I332
tp1912
a(I332
I343
tp1913
a(I343
I344
tp1914
aa(lp1915
(I418
I420
tp1916
a(I420
I424
tp1917
a(I424
I410
tp1918
a(I410
I413
tp1919
a(I413
I422
tp1920
a(I422
I406
tp1921
a(I406
I405
tp1922
a(I405
I418
tp1923
aa(lp1924
(I731
I728
tp1925
a(I728
I729
tp1926
a(I729
I730
tp1927
a(I730
I163
tp1928
a(I163
I162
tp1929
a(I162
I726
tp1930
a(I726
I732
tp1931
a(I732
I731
tp1932
aa(lp1933
(I30
I29
tp1934
a(I29
I767
tp1935
a(I767
I756
tp1936
a(I756
I23
tp1937
a(I23
I190
tp1938
a(I190
I46
tp1939
a(I46
I57
tp1940
a(I57
I30
tp1941
aa(lp1942
(I557
I468
tp1943
a(I468
I479
tp1944
a(I479
I501
tp1945
a(I501
I523
tp1946
a(I523
I512
tp1947
a(I512
I534
tp1948
a(I534
I545
tp1949
a(I545
I557
tp1950
aa(lp1951
(I125
I17
tp1952
a(I17
I16
tp1953
a(I16
I118
tp1954
a(I118
I120
tp1955
a(I120
I121
tp1956
a(I121
I126
tp1957
a(I126
I123
tp1958
a(I123
I125
tp1959
aa(lp1960
(I62
I61
tp1961
a(I61
I60
tp1962
a(I60
I59
tp1963
a(I59
I58
tp1964
a(I58
I56
tp1965
a(I56
I43
tp1966
a(I43
I51
tp1967
a(I51
I62
tp1968
aa(lp1969
(I439
I438
tp1970
a(I438
I437
tp1971
a(I437
I427
tp1972
a(I427
I395
tp1973
a(I395
I396
tp1974
a(I396
I389
tp1975
a(I389
I392
tp1976
a(I392
I440
tp1977
a(I440
I439
tp1978
aa(lp1979
(I598
I585
tp1980
a(I585
I589
tp1981
a(I589
I594
tp1982
a(I594
I593
tp1983
a(I593
I592
tp1984
a(I592
I595
tp1985
a(I595
I596
tp1986
a(I596
I597
tp1987
a(I597
I598
tp1988
aa(lp1989
(I775
I734
tp1990
a(I734
I745
tp1991
a(I745
I712
tp1992
a(I712
I723
tp1993
a(I723
I590
tp1994
a(I590
I679
tp1995
a(I679
I756
tp1996
a(I756
I767
tp1997
a(I767
I775
tp1998
aa(lp1999
(I324
I321
tp2000
a(I321
I320
tp2001
a(I320
I319
tp2002
a(I319
I316
tp2003
a(I316
I317
tp2004
a(I317
I325
tp2005
a(I325
I326
tp2006
a(I326
I322
tp2007
a(I322
I324
tp2008
aa(lp2009
(I384
I385
tp2010
a(I385
I386
tp2011
a(I386
I387
tp2012
a(I387
I380
tp2013
a(I380
I383
tp2014
a(I383
I358
tp2015
a(I358
I364
tp2016
a(I364
I388
tp2017
a(I388
I384
tp2018
aa(lp2019
(I683
I676
tp2020
a(I676
I681
tp2021
a(I681
I685
tp2022
a(I685
I684
tp2023
a(I684
I238
tp2024
a(I238
I237
tp2025
a(I237
I671
tp2026
a(I671
I682
tp2027
a(I682
I683
tp2028
aa(lp2029
(I428
I376
tp2030
a(I376
I375
tp2031
a(I375
I421
tp2032
a(I421
I400
tp2033
a(I400
I394
tp2034
a(I394
I395
tp2035
a(I395
I427
tp2036
a(I427
I429
tp2037
a(I429
I428
tp2038
aa(lp2039
(I404
I403
tp2040
a(I403
I405
tp2041
a(I405
I406
tp2042
a(I406
I407
tp2043
a(I407
I402
tp2044
a(I402
I387
tp2045
a(I387
I386
tp2046
a(I386
I399
tp2047
a(I399
I404
tp2048
aa(lp2049
(I529
I531
tp2050
a(I531
I535
tp2051
a(I535
I536
tp2052
a(I536
I533
tp2053
a(I533
I537
tp2054
a(I537
I538
tp2055
a(I538
I539
tp2056
a(I539
I532
tp2057
a(I532
I529
tp2058
aa(lp2059
(I467
I462
tp2060
a(I462
I459
tp2061
a(I459
I460
tp2062
a(I460
I471
tp2063
a(I471
I472
tp2064
a(I472
I470
tp2065
a(I470
I469
tp2066
a(I469
I466
tp2067
a(I466
I467
tp2068
aa(lp2069
(I774
I34
tp2070
a(I34
I36
tp2071
a(I36
I37
tp2072
a(I37
I38
tp2073
a(I38
I31
tp2074
a(I31
I30
tp2075
a(I30
I57
tp2076
a(I57
I667
tp2077
a(I667
I774
tp2078
aa(lp2079
(I400
I421
tp2080
a(I421
I409
tp2081
a(I409
I416
tp2082
a(I416
I419
tp2083
a(I419
I420
tp2084
a(I420
I418
tp2085
a(I418
I417
tp2086
a(I417
I397
tp2087
a(I397
I400
tp2088
aa(lp2089
(I497
I487
tp2090
a(I487
I486
tp2091
a(I486
I494
tp2092
a(I494
I493
tp2093
a(I493
I480
tp2094
a(I480
I481
tp2095
a(I481
I495
tp2096
a(I495
I496
tp2097
a(I496
I497
tp2098
aa(lp2099
(I105
I91
tp2100
a(I91
I99
tp2101
a(I99
I158
tp2102
a(I158
I159
tp2103
a(I159
I133
tp2104
a(I133
I132
tp2105
a(I132
I149
tp2106
a(I149
I104
tp2107
a(I104
I105
tp2108
aa(lp2109
(I588
I589
tp2110
a(I589
I585
tp2111
a(I585
I586
tp2112
a(I586
I591
tp2113
a(I591
I576
tp2114
a(I576
I575
tp2115
a(I575
I580
tp2116
a(I580
I587
tp2117
a(I587
I588
tp2118
aa(lp2119
(I483
I484
tp2120
a(I484
I485
tp2121
a(I485
I486
tp2122
a(I486
I487
tp2123
a(I487
I489
tp2124
a(I489
I488
tp2125
a(I488
I476
tp2126
a(I476
I475
tp2127
a(I475
I483
tp2128
aa(lp2129
(I620
I617
tp2130
a(I617
I606
tp2131
a(I606
I605
tp2132
a(I605
I614
tp2133
a(I614
I615
tp2134
a(I615
I618
tp2135
a(I618
I619
tp2136
a(I619
I621
tp2137
a(I621
I620
tp2138
aa(lp2139
(I637
I636
tp2140
a(I636
I643
tp2141
a(I643
I626
tp2142
a(I626
I627
tp2143
a(I627
I644
tp2144
a(I644
I646
tp2145
a(I646
I647
tp2146
a(I647
I648
tp2147
a(I648
I637
tp2148
aa(lp2149
(I160
I161
tp2150
a(I161
I183
tp2151
a(I183
I182
tp2152
a(I182
I180
tp2153
a(I180
I181
tp2154
a(I181
I178
tp2155
a(I178
I177
tp2156
a(I177
I176
tp2157
a(I176
I160
tp2158
aa(lp2159
(I317
I318
tp2160
a(I318
I508
tp2161
a(I508
I507
tp2162
a(I507
I283
tp2163
a(I283
I282
tp2164
a(I282
I503
tp2165
a(I503
I505
tp2166
a(I505
I325
tp2167
a(I325
I317
tp2168
aa(lp2169
(I563
I564
tp2170
a(I564
I574
tp2171
a(I574
I571
tp2172
a(I571
I572
tp2173
a(I572
I573
tp2174
a(I573
I570
tp2175
a(I570
I569
tp2176
a(I569
I567
tp2177
a(I567
I563
tp2178
aa(lp2179
(I785
I556
tp2180
a(I556
I667
tp2181
a(I667
I57
tp2182
a(I57
I46
tp2183
a(I46
I13
tp2184
a(I13
I24
tp2185
a(I24
I35
tp2186
a(I35
I2
tp2187
a(I2
I785
tp2188
aa(lp2189
(I630
I660
tp2190
a(I660
I256
tp2191
a(I256
I243
tp2192
a(I243
I249
tp2193
a(I249
I663
tp2194
a(I663
I662
tp2195
a(I662
I228
tp2196
a(I228
I236
tp2197
a(I236
I631
tp2198
a(I631
I630
tp2199
aa(lp2200
(I760
I758
tp2201
a(I758
I522
tp2202
a(I522
I521
tp2203
a(I521
I719
tp2204
a(I719
I727
tp2205
a(I727
I167
tp2206
a(I167
I175
tp2207
a(I175
I757
tp2208
a(I757
I759
tp2209
a(I759
I760
tp2210
aa(lp2211
(I441
I442
tp2212
a(I442
I443
tp2213
a(I443
I444
tp2214
a(I444
I447
tp2215
a(I447
I430
tp2216
a(I430
I428
tp2217
a(I428
I429
tp2218
a(I429
I437
tp2219
a(I437
I438
tp2220
a(I438
I441
tp2221
aa(lp2222
(I279
I257
tp2223
a(I257
I235
tp2224
a(I235
I246
tp2225
a(I246
I224
tp2226
a(I224
I201
tp2227
a(I201
I212
tp2228
a(I212
I68
tp2229
a(I68
I179
tp2230
a(I179
I268
tp2231
a(I268
I279
tp2232
aa(lp2233
(I697
I699
tp2234
a(I699
I205
tp2235
a(I205
I206
tp2236
a(I206
I180
tp2237
a(I180
I182
tp2238
a(I182
I702
tp2239
a(I702
I700
tp2240
a(I700
I696
tp2241
a(I696
I698
tp2242
a(I698
I697
tp2243
aa(lp2244
(I366
I378
tp2245
a(I378
I370
tp2246
a(I370
I371
tp2247
a(I371
I373
tp2248
a(I373
I374
tp2249
a(I374
I375
tp2250
a(I375
I376
tp2251
a(I376
I377
tp2252
a(I377
I356
tp2253
a(I356
I366
tp2254
aa(lp2255
(I293
I294
tp2256
a(I294
I295
tp2257
a(I295
I297
tp2258
a(I297
I296
tp2259
a(I296
I278
tp2260
a(I278
I277
tp2261
a(I277
I289
tp2262
a(I289
I298
tp2263
a(I298
I292
tp2264
a(I292
I293
tp2265
aa(lp2266
(I735
I736
tp2267
a(I736
I733
tp2268
a(I733
I164
tp2269
a(I164
I163
tp2270
a(I163
I730
tp2271
a(I730
I739
tp2272
a(I739
I740
tp2273
a(I740
I738
tp2274
a(I738
I741
tp2275
a(I741
I737
tp2276
a(I737
I735
tp2277
aa(lp2278
(I473
I466
tp2279
a(I466
I469
tp2280
a(I469
I475
tp2281
a(I475
I476
tp2282
a(I476
I482
tp2283
a(I482
I481
tp2284
a(I481
I480
tp2285
a(I480
I478
tp2286
a(I478
I477
tp2287
a(I477
I474
tp2288
a(I474
I473
tp2289
aa(lp2290
(I510
I513
tp2291
a(I513
I509
tp2292
a(I509
I98
tp2293
a(I98
I96
tp2294
a(I96
I284
tp2295
a(I284
I507
tp2296
a(I507
I508
tp2297
a(I508
I310
tp2298
a(I310
I314
tp2299
a(I314
I511
tp2300
a(I511
I510
tp2301
aa(lp2302
(I332
I333
tp2303
a(I333
I336
tp2304
a(I336
I338
tp2305
a(I338
I337
tp2306
a(I337
I339
tp2307
a(I339
I340
tp2308
a(I340
I331
tp2309
a(I331
I329
tp2310
a(I329
I321
tp2311
a(I321
I324
tp2312
a(I324
I332
tp2313
aa(lp2314
(I520
I613
tp2315
a(I613
I708
tp2316
a(I708
I700
tp2317
a(I700
I702
tp2318
a(I702
I717
tp2319
a(I717
I718
tp2320
a(I718
I720
tp2321
a(I720
I721
tp2322
a(I721
I719
tp2323
a(I719
I521
tp2324
a(I521
I520
tp2325
aa(lp2326
(I201
I224
tp2327
a(I224
I357
tp2328
a(I357
I323
tp2329
a(I323
I335
tp2330
a(I335
I346
tp2331
a(I346
I79
tp2332
a(I79
I146
tp2333
a(I146
I312
tp2334
a(I312
I301
tp2335
a(I301
I290
tp2336
a(I290
I201
tp2337
aa(lp2338
(I77
I76
tp2339
a(I76
I89
tp2340
a(I89
I102
tp2341
a(I102
I108
tp2342
a(I108
I107
tp2343
a(I107
I109
tp2344
a(I109
I110
tp2345
a(I110
I114
tp2346
a(I114
I111
tp2347
a(I111
I106
tp2348
a(I106
I77
tp2349
aa(lp2350
(I298
I289
tp2351
a(I289
I291
tp2352
a(I291
I604
tp2353
a(I604
I605
tp2354
a(I605
I606
tp2355
a(I606
I607
tp2356
a(I607
I603
tp2357
a(I603
I516
tp2358
a(I516
I515
tp2359
a(I515
I309
tp2360
a(I309
I298
tp2361
aa(lp2362
(I432
I431
tp2363
a(I431
I359
tp2364
a(I359
I360
tp2365
a(I360
I377
tp2366
a(I377
I376
tp2367
a(I376
I428
tp2368
a(I428
I430
tp2369
a(I430
I436
tp2370
a(I436
I435
tp2371
a(I435
I433
tp2372
a(I433
I432
tp2373
aa(lp2374
(I547
I541
tp2375
a(I541
I20
tp2376
a(I20
I18
tp2377
a(I18
I127
tp2378
a(I127
I140
tp2379
a(I140
I553
tp2380
a(I553
I552
tp2381
a(I552
I551
tp2382
a(I551
I549
tp2383
a(I549
I546
tp2384
a(I546
I547
tp2385
aa(lp2386
(I7
I12
tp2387
a(I12
I14
tp2388
a(I14
I15
tp2389
a(I15
I16
tp2390
a(I16
I17
tp2391
a(I17
I18
tp2392
a(I18
I20
tp2393
a(I20
I19
tp2394
a(I19
I9
tp2395
a(I9
I3
tp2396
a(I3
I7
tp2397
aa(lp2398
(I632
I664
tp2399
a(I664
I670
tp2400
a(I670
I671
tp2401
a(I671
I237
tp2402
a(I237
I215
tp2403
a(I215
I216
tp2404
a(I216
I673
tp2405
a(I673
I675
tp2406
a(I675
I674
tp2407
a(I674
I672
tp2408
a(I672
I633
tp2409
a(I633
I632
tp2410
aa(lp2411
(I309
I306
tp2412
a(I306
I307
tp2413
a(I307
I308
tp2414
a(I308
I299
tp2415
a(I299
I300
tp2416
a(I300
I302
tp2417
a(I302
I303
tp2418
a(I303
I304
tp2419
a(I304
I305
tp2420
a(I305
I292
tp2421
a(I292
I298
tp2422
a(I298
I309
tp2423
aa(lp2424
(I83
I194
tp2425
a(I194
I195
tp2426
a(I195
I196
tp2427
a(I196
I198
tp2428
a(I198
I197
tp2429
a(I197
I188
tp2430
a(I188
I187
tp2431
a(I187
I177
tp2432
a(I177
I178
tp2433
a(I178
I93
tp2434
a(I93
I84
tp2435
a(I84
I83
tp2436
aa(lp2437
(I134
I517
tp2438
a(I517
I519
tp2439
a(I519
I520
tp2440
a(I520
I521
tp2441
a(I521
I522
tp2442
a(I522
I524
tp2443
a(I524
I526
tp2444
a(I526
I525
tp2445
a(I525
I527
tp2446
a(I527
I518
tp2447
a(I518
I137
tp2448
a(I137
I134
tp2449
aa(lp2450
(I269
I270
tp2451
a(I270
I271
tp2452
a(I271
I265
tp2453
a(I265
I202
tp2454
a(I202
I203
tp2455
a(I203
I225
tp2456
a(I225
I226
tp2457
a(I226
I260
tp2458
a(I260
I262
tp2459
a(I262
I267
tp2460
a(I267
I266
tp2461
a(I266
I269
tp2462
aa(lp2463
(I616
I635
tp2464
a(I635
I636
tp2465
a(I636
I637
tp2466
a(I637
I639
tp2467
a(I639
I638
tp2468
a(I638
I641
tp2469
a(I641
I640
tp2470
a(I640
I622
tp2471
a(I622
I624
tp2472
a(I624
I618
tp2473
a(I618
I615
tp2474
a(I615
I616
tp2475
aa(lp2476
(I471
I460
tp2477
a(I460
I461
tp2478
a(I461
I456
tp2479
a(I456
I355
tp2480
a(I355
I352
tp2481
a(I352
I344
tp2482
a(I344
I347
tp2483
a(I347
I506
tp2484
a(I506
I505
tp2485
a(I505
I503
tp2486
a(I503
I504
tp2487
a(I504
I471
tp2488
aa(lp2489
(I519
I603
tp2490
a(I603
I607
tp2491
a(I607
I608
tp2492
a(I608
I609
tp2493
a(I609
I610
tp2494
a(I610
I611
tp2495
a(I611
I210
tp2496
a(I210
I204
tp2497
a(I204
I208
tp2498
a(I208
I613
tp2499
a(I613
I520
tp2500
a(I520
I519
tp2501
aa(lp2502
(I128
I131
tp2503
a(I131
I132
tp2504
a(I132
I133
tp2505
a(I133
I136
tp2506
a(I136
I134
tp2507
a(I134
I137
tp2508
a(I137
I138
tp2509
a(I138
I139
tp2510
a(I139
I130
tp2511
a(I130
I140
tp2512
a(I140
I127
tp2513
a(I127
I128
tp2514
aa(lp2515
(I217
I218
tp2516
a(I218
I220
tp2517
a(I220
I221
tp2518
a(I221
I219
tp2519
a(I219
I222
tp2520
a(I222
I226
tp2521
a(I226
I225
tp2522
a(I225
I200
tp2523
a(I200
I199
tp2524
a(I199
I209
tp2525
a(I209
I214
tp2526
a(I214
I217
tp2527
aa(lp2528
(I99
I91
tp2529
a(I91
I92
tp2530
a(I92
I89
tp2531
a(I89
I76
tp2532
a(I76
I75
tp2533
a(I75
I84
tp2534
a(I84
I93
tp2535
a(I93
I94
tp2536
a(I94
I95
tp2537
a(I95
I97
tp2538
a(I97
I96
tp2539
a(I96
I98
tp2540
a(I98
I99
tp2541
aa(lp2542
(I541
I542
tp2543
a(I542
I533
tp2544
a(I533
I536
tp2545
a(I536
I540
tp2546
a(I540
I530
tp2547
a(I530
I518
tp2548
a(I518
I527
tp2549
a(I527
I794
tp2550
a(I794
I793
tp2551
a(I793
I10
tp2552
a(I10
I19
tp2553
a(I19
I20
tp2554
a(I20
I541
tp2555
aa(lp2556
(I217
I240
tp2557
a(I240
I227
tp2558
a(I227
I233
tp2559
a(I233
I248
tp2560
a(I248
I247
tp2561
a(I247
I245
tp2562
a(I245
I244
tp2563
a(I244
I249
tp2564
a(I249
I243
tp2565
a(I243
I241
tp2566
a(I241
I242
tp2567
a(I242
I218
tp2568
a(I218
I217
tp2569
aa(lp2570
(I241
I243
tp2571
a(I243
I256
tp2572
a(I256
I258
tp2573
a(I258
I259
tp2574
a(I259
I255
tp2575
a(I255
I254
tp2576
a(I254
I253
tp2577
a(I253
I252
tp2578
a(I252
I219
tp2579
a(I219
I221
tp2580
a(I221
I251
tp2581
a(I251
I250
tp2582
a(I250
I241
tp2583
aa(lp2584
(I415
I413
tp2585
a(I413
I410
tp2586
a(I410
I416
tp2587
a(I416
I409
tp2588
a(I409
I374
tp2589
a(I374
I373
tp2590
a(I373
I382
tp2591
a(I382
I408
tp2592
a(I408
I402
tp2593
a(I402
I407
tp2594
a(I407
I411
tp2595
a(I411
I414
tp2596
a(I414
I415
tp2597
aa(lp2598
(I199
I200
tp2599
a(I200
I203
tp2600
a(I203
I202
tp2601
a(I202
I94
tp2602
a(I94
I93
tp2603
a(I93
I178
tp2604
a(I178
I181
tp2605
a(I181
I206
tp2606
a(I206
I205
tp2607
a(I205
I207
tp2608
a(I207
I208
tp2609
a(I208
I204
tp2610
a(I204
I199
tp2611
aa(lp2612
(I101
I124
tp2613
a(I124
I113
tp2614
a(I113
I90
tp2615
a(I90
I135
tp2616
a(I135
I146
tp2617
a(I146
I79
tp2618
a(I79
I168
tp2619
a(I168
I157
tp2620
a(I157
I13
tp2621
a(I13
I46
tp2622
a(I46
I190
tp2623
a(I190
I179
tp2624
a(I179
I68
tp2625
a(I68
I101
tp2626
aa(lp2627
(I213
I215
tp2628
a(I215
I237
tp2629
a(I237
I238
tp2630
a(I238
I239
tp2631
a(I239
I236
tp2632
a(I236
I228
tp2633
a(I228
I234
tp2634
a(I234
I230
tp2635
a(I230
I231
tp2636
a(I231
I232
tp2637
a(I232
I233
tp2638
a(I233
I227
tp2639
a(I227
I229
tp2640
a(I229
I213
tp2641
aa(lp2642
(I354
I369
tp2643
a(I369
I367
tp2644
a(I367
I366
tp2645
a(I366
I356
tp2646
a(I356
I360
tp2647
a(I360
I359
tp2648
a(I359
I361
tp2649
a(I361
I363
tp2650
a(I363
I362
tp2651
a(I362
I364
tp2652
a(I364
I358
tp2653
a(I358
I365
tp2654
a(I365
I353
tp2655
a(I353
I354
tp2656
aa(lp2657
(I84
I75
tp2658
a(I75
I61
tp2659
a(I61
I62
tp2660
a(I62
I78
tp2661
a(I78
I80
tp2662
a(I80
I50
tp2663
a(I50
I54
tp2664
a(I54
I86
tp2665
a(I86
I87
tp2666
a(I87
I85
tp2667
a(I85
I81
tp2668
a(I81
I82
tp2669
a(I82
I83
tp2670
a(I83
I84
tp2671
aa(lp2672
(I595
I582
tp2673
a(I582
I583
tp2674
a(I583
I571
tp2675
a(I571
I574
tp2676
a(I574
I599
tp2677
a(I599
I143
tp2678
a(I143
I142
tp2679
a(I142
I532
tp2680
a(I532
I539
tp2681
a(I539
I551
tp2682
a(I551
I552
tp2683
a(I552
I554
tp2684
a(I554
I561
tp2685
a(I561
I596
tp2686
a(I596
I595
tp2687
aa(lp2688
(I627
I626
tp2689
a(I626
I630
tp2690
a(I630
I631
tp2691
a(I631
I632
tp2692
a(I632
I633
tp2693
a(I633
I609
tp2694
a(I609
I608
tp2695
a(I608
I617
tp2696
a(I617
I620
tp2697
a(I620
I625
tp2698
a(I625
I624
tp2699
a(I624
I622
tp2700
a(I622
I628
tp2701
a(I628
I629
tp2702
a(I629
I627
tp2703
aa(lp2704
(I656
I645
tp2705
a(I645
I701
tp2706
a(I701
I690
tp2707
a(I690
I679
tp2708
a(I679
I590
tp2709
a(I590
I601
tp2710
a(I601
I612
tp2711
a(I612
I623
tp2712
a(I623
I545
tp2713
a(I545
I534
tp2714
a(I534
I257
tp2715
a(I257
I279
tp2716
a(I279
I634
tp2717
a(I634
I668
tp2718
a(I668
I656
tp2719
aa(lp2720
(I770
I764
tp2721
a(I764
I765
tp2722
a(I765
I557
tp2723
a(I557
I545
tp2724
a(I545
I623
tp2725
a(I623
I782
tp2726
a(I782
I781
tp2727
a(I781
I780
tp2728
a(I780
I788
tp2729
a(I788
I787
tp2730
a(I787
I784
tp2731
a(I784
I791
tp2732
a(I791
I525
tp2733
a(I525
I526
tp2734
a(I526
I771
tp2735
a(I771
I770
tp2736
aa(lp2737
(I36
I34
tp2738
a(I34
I39
tp2739
a(I39
I40
tp2740
a(I40
I55
tp2741
a(I55
I53
tp2742
a(I53
I54
tp2743
a(I54
I50
tp2744
a(I50
I52
tp2745
a(I52
I51
tp2746
a(I51
I43
tp2747
a(I43
I44
tp2748
a(I44
I48
tp2749
a(I48
I47
tp2750
a(I47
I49
tp2751
a(I49
I45
tp2752
a(I45
I36
tp2753
aa(lp2754
(I272
I265
tp2755
a(I265
I271
tp2756
a(I271
I275
tp2757
a(I275
I274
tp2758
a(I274
I273
tp2759
a(I273
I276
tp2760
a(I276
I277
tp2761
a(I277
I278
tp2762
a(I278
I280
tp2763
a(I280
I281
tp2764
a(I281
I282
tp2765
a(I282
I283
tp2766
a(I283
I284
tp2767
a(I284
I96
tp2768
a(I96
I97
tp2769
a(I97
I272
tp2770
aa(lp2771
(I171
I173
tp2772
a(I173
I174
tp2773
a(I174
I172
tp2774
a(I172
I175
tp2775
a(I175
I167
tp2776
a(I167
I169
tp2777
a(I169
I162
tp2778
a(I162
I163
tp2779
a(I163
I164
tp2780
a(I164
I166
tp2781
a(I166
I165
tp2782
a(I165
I161
tp2783
a(I161
I160
tp2784
a(I160
I81
tp2785
a(I81
I85
tp2786
a(I85
I170
tp2787
a(I170
I171
tp2788
aa.